Certificate:
    Data:
        Version: 3 (0x2)
        Serial Number: 137858455818 (0x201901190a)
    Signature Algorithm: sha256WithRSAEncryption
        Issuer: C=JP, ST=Ehime, L=Matsuyama, O=Personal Use, O=TakashiSasaki, OU=TakashiSasaki CA, CN=Takashi SASAKI Certification Authority
        Validity
            Not Before: Feb 17 07:30:34 2018 GMT
            Not After : Jan 24 07:30:34 2118 GMT
        Subject: C=JP, ST=Ehime, L=Matsuyama, O=Personal Use, O=TakashiSasaki, OU=SSH Key, OU=SurfacePro4, OU=takashi, CN=Takashi SASAKI
        Subject Public Key Info:
            Public Key Algorithm: rsaEncryption
                Public-Key: (2048 bit)
                Modulus:
                    00:bb:d2:97:1b:25:6d:43:1e:a4:ec:81:9a:a7:e5:
                    bf:2e:51:f9:66:d3:a9:19:02:c3:20:e4:4c:1b:e0:
                    55:82:f2:1c:8a:39:f6:bd:b4:1a:9e:78:df:24:a5:
                    4f:42:2f:fa:9c:3e:e7:76:49:3b:30:e4:12:09:5f:
                    7b:db:e3:81:ac:cc:28:d0:b5:f8:ef:de:f0:ca:b4:
                    49:12:b1:e2:f5:75:b1:e1:eb:e4:ff:8c:12:23:ed:
                    a4:50:85:7a:76:1f:77:2b:e7:b5:07:b2:eb:44:9c:
                    f5:2e:02:e6:ee:22:c7:e7:2e:38:f3:30:68:3c:98:
                    53:3c:28:81:78:95:b8:cf:b4:f8:19:2b:46:b9:73:
                    ed:3b:7b:8d:62:c8:dc:8e:06:ac:9b:b9:73:29:1c:
                    4f:91:d1:8b:3a:1a:e1:c1:db:11:cb:70:d8:ec:e7:
                    ec:75:f2:85:7c:9a:ec:92:3d:b2:5e:40:ba:7d:0e:
                    67:e0:65:5a:d5:94:d8:13:95:a2:d4:26:b5:53:b8:
                    01:d4:3a:bf:f8:a7:b4:35:db:af:c8:94:ea:f1:b7:
                    e0:aa:9a:67:3e:53:cf:b2:8c:89:a5:2a:26:03:7e:
                    0c:23:8b:24:8c:b0:3f:e6:c2:53:bc:2b:2d:64:9d:
                    1f:d2:c4:9e:6d:94:18:ce:9d:aa:99:26:a1:ac:21:
                    8c:69
                Exponent: 65537 (0x10001)
        X509v3 extensions:
            X509v3 Basic Constraints: 
                CA:FALSE
            X509v3 Key Usage: 
                Digital Signature, Non Repudiation, Key Encipherment, Data Encipherment
            X509v3 Extended Key Usage: 
                TLS Web Client Authentication, Code Signing, E-mail Protection, Time Stamping
            X509v3 Subject Key Identifier: 
                FF:EE:43:F9:EF:2C:59:C6:15:E5:24:06:E2:29:8B:25:DC:42:ED:CC
            X509v3 Authority Key Identifier: 
                keyid:B9:0E:51:8F:E1:9B:28:EE:B1:8F:76:AE:08:80:98:B8:57:93:E3:D0

            X509v3 Subject Alternative Name: 
                email:takashi316@gmail.com
    Signature Algorithm: sha256WithRSAEncryption
         7a:62:5f:54:9b:e2:c8:71:42:de:17:d9:39:6e:47:06:1b:6b:
         b4:3d:ee:1d:6c:24:c5:2d:af:70:7f:da:0b:a6:0d:ff:7e:e2:
         7b:ae:06:f2:6c:5b:a2:7b:02:1a:f5:d6:b7:01:3c:56:17:44:
         3c:df:d0:4f:8e:30:d3:07:03:62:ca:1e:c1:4c:97:b7:f3:fd:
         a1:85:7b:3c:ac:4b:a1:b1:8e:d5:09:8b:c4:b8:a6:3b:59:38:
         25:60:49:35:df:9d:33:29:78:f6:b8:93:d6:be:04:ed:e5:07:
         10:f8:77:10:3d:a8:c0:9a:76:ea:9a:19:5f:9d:e3:78:5e:78:
         83:01:e6:d0:f3:b8:60:57:04:61:87:f8:f9:d9:29:bf:f9:7e:
         35:39:ed:f5:7f:58:0a:e2:72:92:33:d0:df:32:66:c7:5e:b0:
         1c:55:5d:46:38:1e:20:10:6b:94:ee:18:b6:e0:2e:9c:f5:a0:
         09:9e:80:8b:1f:75:0a:d3:8e:ba:2e:55:97:ee:b0:8d:9a:ee:
         70:b4:d5:fa:a6:cd:e6:88:4a:f4:19:0b:fc:13:2e:68:27:39:
         38:d8:c9:6d:96:0c:d1:4f:fc:6b:31:ac:45:be:1a:63:c6:7c:
         79:38:e4:a5:b7:25:c7:4c:c0:08:f2:be:64:c3:f1:f1:b7:26:
         61:f9:8b:99:39:52:c7:22:80:8e:bf:ab:56:80:85:62:12:30:
         f4:8a:e4:6e:64:6b:af:de:19:73:7b:d2:7f:a9:ff:68:11:82:
         2f:f5:4e:dd:a9:f8:ed:f8:63:6d:f7:23:48:f3:c2:5e:19:c5:
         bf:a9:d1:9f:d8:9b:95:b3:5c:f1:fa:40:cb:17:5d:59:1c:d7:
         ca:d3:c7:23:2d:c0:8b:3f:11:41:ab:73:e0:3e:97:c5:7c:d8:
         a3:ac:cc:79:30:aa:77:7a:b7:57:e5:51:d3:b5:26:0b:ff:f0:
         4c:88:d5:78:86:ac:ee:a4:88:8b:e1:36:01:89:c7:63:ce:c0:
         4b:47:a2:7f:b1:57:dd:8a:ab:cc:44:38:c6:c9:ac:e7:e4:46:
         84:d3:5f:b8:c6:c3:9e:59:18:26:35:38:5a:a4:76:ce:28:76:
         29:03:32:1a:a7:e8:6c:b9:3a:f3:b3:c6:08:da:dd:85:1b:99:
         59:53:8d:78:25:43:17:75:d0:8c:49:8a:98:c5:2b:26:c2:6b:
         6b:18:e5:2c:15:68:4e:77:f2:2b:50:64:d6:42:d3:2b:55:e2:
         8f:e4:cd:e3:43:bc:7f:40:60:e4:1c:33:9b:61:fe:11:13:f5:
         a2:55:e8:55:04:2b:31:64:b6:d5:c6:f9:19:43:f8:c2:10:dd:
         c7:5e:c8:10:2a:02:f9:93
-----BEGIN CERTIFICATE-----
MIIFkjCCA3qgAwIBAgIFIBkBGQowDQYJKoZIhvcNAQELBQAwgawxCzAJBgNVBAYT
AkpQMQ4wDAYDVQQIDAVFaGltZTESMBAGA1UEBwwJTWF0c3V5YW1hMRUwEwYDVQQK
DAxQZXJzb25hbCBVc2UxFjAUBgNVBAoMDVRha2FzaGlTYXNha2kxGTAXBgNVBAsM
EFRha2FzaGlTYXNha2kgQ0ExLzAtBgNVBAMMJlRha2FzaGkgU0FTQUtJIENlcnRp
ZmljYXRpb24gQXV0aG9yaXR5MCAXDTE4MDIxNzA3MzAzNFoYDzIxMTgwMTI0MDcz
MDM0WjCBszELMAkGA1UEBhMCSlAxDjAMBgNVBAgMBUVoaW1lMRIwEAYDVQQHDAlN
YXRzdXlhbWExFTATBgNVBAoMDFBlcnNvbmFsIFVzZTEWMBQGA1UECgwNVGFrYXNo
aVNhc2FraTEQMA4GA1UECwwHU1NIIEtleTEUMBIGA1UECwwLU3VyZmFjZVBybzQx
EDAOBgNVBAsMB3Rha2FzaGkxFzAVBgNVBAMMDlRha2FzaGkgU0FTQUtJMIIBIjAN
BgkqhkiG9w0BAQEFAAOCAQ8AMIIBCgKCAQEAu9KXGyVtQx6k7IGap+W/LlH5ZtOp
GQLDIORMG+BVgvIcijn2vbQannjfJKVPQi/6nD7ndkk7MOQSCV972+OBrMwo0LX4
797wyrRJErHi9XWx4evk/4wSI+2kUIV6dh93K+e1B7LrRJz1LgLm7iLH5y448zBo
PJhTPCiBeJW4z7T4GStGuXPtO3uNYsjcjgasm7lzKRxPkdGLOhrhwdsRy3DY7Ofs
dfKFfJrskj2yXkC6fQ5n4GVa1ZTYE5Wi1Ca1U7gB1Dq/+Ke0NduvyJTq8bfgqppn
PlPPsoyJpSomA34MI4skjLA/5sJTvCstZJ0f0sSebZQYzp2qmSahrCGMaQIDAQAB
o4GvMIGsMAkGA1UdEwQCMAAwCwYDVR0PBAQDAgTwMDEGA1UdJQQqMCgGCCsGAQUF
BwMCBggrBgEFBQcDAwYIKwYBBQUHAwQGCCsGAQUFBwMIMB0GA1UdDgQWBBT/7kP5
7yxZxhXlJAbiKYsl3ELtzDAfBgNVHSMEGDAWgBS5DlGP4Zso7rGPdq4IgJi4V5Pj
0DAfBgNVHREEGDAWgRR0YWthc2hpMzE2QGdtYWlsLmNvbTANBgkqhkiG9w0BAQsF
AAOCAgEAemJfVJviyHFC3hfZOW5HBhtrtD3uHWwkxS2vcH/aC6YN/37ie64G8mxb
onsCGvXWtwE8VhdEPN/QT44w0wcDYsoewUyXt/P9oYV7PKxLobGO1QmLxLimO1k4
JWBJNd+dMyl49riT1r4E7eUHEPh3ED2owJp26poZX53jeF54gwHm0PO4YFcEYYf4
+dkpv/l+NTnt9X9YCuJykjPQ3zJmx16wHFVdRjgeIBBrlO4YtuAunPWgCZ6Aix91
CtOOui5Vl+6wjZrucLTV+qbN5ohK9BkL/BMuaCc5ONjJbZYM0U/8azGsRb4aY8Z8
eTjkpbclx0zACPK+ZMPx8bcmYfmLmTlSxyKAjr+rVoCFYhIw9IrkbmRrr94Zc3vS
f6n/aBGCL/VO3an47fhjbfcjSPPCXhnFv6nRn9iblbNc8fpAyxddWRzXytPHIy3A
iz8RQatz4D6XxXzYo6zMeTCqd3q3V+VR07UmC//wTIjVeIas7qSIi+E2AYnHY87A
S0eif7FX3YqrzEQ4xsms5+RGhNNfuMbDnlkYJjU4WqR2zih2KQMyGqfobLk687PG
CNrdhRuZWVONeCVDF3XQjEmKmMUrJsJraxjlLBVoTnfyK1Bk1kLTK1Xij+TN40O8
f0Bg5Bwzm2H+ERP1olXoVQQrMWS21cb5GUP4whDdx17IECoC+ZM=
-----END CERTIFICATE-----
