Certificate:
    Data:
        Version: 3 (0x2)
        Serial Number: 137858455815 (0x2019011907)
    Signature Algorithm: sha256WithRSAEncryption
        Issuer: C=JP, ST=Ehime, L=Matsuyama, O=Personal Use, O=TakashiSasaki, OU=TakashiSasaki CA, CN=Takashi SASAKI Certification Authority/emailAddress=takashi316+ca@gmail.com
        Validity
            Not Before: Feb 16 16:13:50 2018 GMT
            Not After : Jan 23 16:13:50 2118 GMT
        Subject: C=JP, ST=Ehime, L=Matsuyama, O=Personal Use, O=TakashiSasaki, OU=SSH Key, OU=sasaki64, OU=sasaki, CN=Takashi SASAKI
        Subject Public Key Info:
            Public Key Algorithm: rsaEncryption
                Public-Key: (2048 bit)
                Modulus:
                    00:d2:c9:7b:a9:dd:9e:e5:84:c8:71:60:cb:b3:c7:
                    04:ba:8f:70:fc:f9:bd:50:2e:f8:ca:dc:58:94:22:
                    47:29:32:6f:0d:0c:fb:15:17:d9:b8:37:85:43:fd:
                    19:16:eb:df:9d:b3:fe:14:f0:ee:75:67:ec:f3:b8:
                    c8:bc:21:58:ab:fa:22:c6:06:32:3e:47:5e:40:4a:
                    66:af:26:47:63:5e:dc:b7:0f:e7:a6:7c:79:ec:9c:
                    7c:f7:10:0a:9a:6b:ae:8b:11:dd:7a:a8:5c:a4:3d:
                    13:87:9d:f6:f4:1b:6b:e6:b6:22:61:5e:6d:0d:7f:
                    47:06:35:88:cb:80:b3:ad:9e:15:83:8e:25:de:62:
                    0c:6c:25:aa:f7:19:6a:dc:50:24:32:50:96:5f:65:
                    1b:64:44:19:f9:f3:3f:56:b1:99:66:b5:88:e8:8d:
                    40:86:66:13:08:17:d3:56:f2:7a:cb:59:2f:b6:88:
                    fa:df:b7:f1:04:6f:37:89:17:f5:c3:48:3b:10:d6:
                    d4:4a:4a:37:e2:e4:7c:07:ed:c3:09:b5:39:aa:80:
                    47:2a:31:f5:e0:e4:6d:e9:62:5e:a8:90:7d:2b:3b:
                    09:cf:d9:e1:f2:69:b2:c6:b3:23:dd:00:82:a4:f1:
                    23:12:13:bd:10:53:6e:02:fa:46:ba:75:70:72:4d:
                    93:91
                Exponent: 65537 (0x10001)
        X509v3 extensions:
            X509v3 Basic Constraints: 
                CA:FALSE
            X509v3 Key Usage: 
                Digital Signature, Non Repudiation, Key Encipherment, Data Encipherment
            X509v3 Extended Key Usage: 
                TLS Web Client Authentication, Code Signing, E-mail Protection, Time Stamping
            X509v3 Subject Key Identifier: 
                69:76:40:C3:3B:29:69:0D:B8:2C:11:31:B5:18:06:AC:3C:FA:6B:D4
            X509v3 Authority Key Identifier: 
                keyid:B9:0E:51:8F:E1:9B:28:EE:B1:8F:76:AE:08:80:98:B8:57:93:E3:D0

            X509v3 Subject Alternative Name: 
                email:takashi316@gmail.com
    Signature Algorithm: sha256WithRSAEncryption
         2c:7d:28:7b:93:81:bb:13:dc:35:f0:65:5d:13:ff:f7:c7:8b:
         ae:18:b5:95:95:63:80:a9:b9:ba:25:df:cb:06:46:77:70:2d:
         a7:3b:58:76:e1:8c:a8:f0:02:85:15:76:38:06:50:70:85:f5:
         33:0b:92:db:e9:95:d5:4b:29:ca:88:55:a9:ee:1a:1c:c0:4e:
         83:60:18:17:5d:a5:59:78:16:ef:c9:ab:f6:80:40:ef:29:40:
         4d:55:1c:a5:63:a2:a1:9e:59:52:2a:23:7a:9e:99:a1:a0:4d:
         e2:50:10:14:0f:10:1e:08:98:db:08:03:8d:1c:38:7b:0e:0c:
         60:75:7c:8d:aa:de:26:26:7d:d2:ba:60:50:ce:17:3b:a1:4f:
         f7:58:32:df:da:a1:23:9f:58:dc:84:0b:5b:44:4f:06:2b:16:
         b3:01:ff:a1:e3:b1:7e:7c:57:66:45:f1:34:bb:e1:8c:6f:5a:
         b2:5b:ce:8f:25:79:bf:08:09:3b:1f:00:83:4b:ab:9a:66:e7:
         60:70:62:6b:ca:3a:a9:3c:ca:7a:1d:db:be:50:42:34:eb:b9:
         9b:8c:8b:dc:ba:73:2c:09:3e:c5:65:af:08:1d:e3:8d:a9:cb:
         91:8b:6e:22:41:7d:b7:bc:e2:ec:5c:f5:9d:6e:56:d4:65:c6:
         57:78:b8:37:5b:9c:0f:aa:f7:07:65:7c:95:e4:98:00:8f:41:
         7a:d5:14:48:3b:ef:01:79:6a:a6:be:65:62:03:fe:07:29:37:
         81:3c:5d:71:dc:3c:92:ff:39:ea:69:23:dd:02:fe:fc:f3:81:
         05:b7:c6:1c:6f:cf:cc:f0:85:c2:42:24:f1:d3:b5:9e:f4:9d:
         1c:20:ce:b4:65:b3:ee:93:cb:59:4b:a3:9e:e0:f3:6a:39:f3:
         6e:5d:b6:ab:58:44:9e:8e:44:98:bb:84:da:b2:79:5a:4b:86:
         5c:e9:df:2b:da:3d:b1:a7:db:f5:75:8d:57:ce:53:c8:bd:6b:
         84:26:c5:3e:49:2b:28:75:70:70:24:31:d7:75:22:64:fa:a8:
         1c:31:40:51:5c:f7:8f:27:cf:aa:9a:a0:a4:98:7b:25:2b:78:
         f5:71:75:ef:76:76:70:19:63:3e:be:0c:27:c5:c5:9b:86:e8:
         5f:2e:f4:26:61:aa:da:5a:24:bc:4e:1a:4e:1a:a4:26:39:ad:
         16:26:19:a0:33:7e:f9:f4:6b:f9:4f:5a:b2:30:9a:d3:40:b0:
         90:9b:b9:9e:2f:98:9a:fa:03:3c:79:7a:2e:f3:a9:ef:e7:a0:
         aa:22:7e:7a:d3:7a:14:60:13:fd:f0:2f:5f:51:bc:3d:53:2d:
         f9:7e:87:6d:53:73:fd:8d
-----BEGIN CERTIFICATE-----
MIIFtjCCA56gAwIBAgIFIBkBGQcwDQYJKoZIhvcNAQELBQAwgdQxCzAJBgNVBAYT
AkpQMQ4wDAYDVQQIDAVFaGltZTESMBAGA1UEBwwJTWF0c3V5YW1hMRUwEwYDVQQK
DAxQZXJzb25hbCBVc2UxFjAUBgNVBAoMDVRha2FzaGlTYXNha2kxGTAXBgNVBAsM
EFRha2FzaGlTYXNha2kgQ0ExLzAtBgNVBAMMJlRha2FzaGkgU0FTQUtJIENlcnRp
ZmljYXRpb24gQXV0aG9yaXR5MSYwJAYJKoZIhvcNAQkBFhd0YWthc2hpMzE2K2Nh
QGdtYWlsLmNvbTAgFw0xODAyMTYxNjEzNTBaGA8yMTE4MDEyMzE2MTM1MFowga8x
CzAJBgNVBAYTAkpQMQ4wDAYDVQQIDAVFaGltZTESMBAGA1UEBwwJTWF0c3V5YW1h
MRUwEwYDVQQKDAxQZXJzb25hbCBVc2UxFjAUBgNVBAoMDVRha2FzaGlTYXNha2kx
EDAOBgNVBAsMB1NTSCBLZXkxETAPBgNVBAsMCHNhc2FraTY0MQ8wDQYDVQQLDAZz
YXNha2kxFzAVBgNVBAMMDlRha2FzaGkgU0FTQUtJMIIBIjANBgkqhkiG9w0BAQEF
AAOCAQ8AMIIBCgKCAQEA0sl7qd2e5YTIcWDLs8cEuo9w/Pm9UC74ytxYlCJHKTJv
DQz7FRfZuDeFQ/0ZFuvfnbP+FPDudWfs87jIvCFYq/oixgYyPkdeQEpmryZHY17c
tw/npnx57Jx89xAKmmuuixHdeqhcpD0Th5329Btr5rYiYV5tDX9HBjWIy4CzrZ4V
g44l3mIMbCWq9xlq3FAkMlCWX2UbZEQZ+fM/VrGZZrWI6I1AhmYTCBfTVvJ6y1kv
toj637fxBG83iRf1w0g7ENbUSko34uR8B+3DCbU5qoBHKjH14ORt6WJeqJB9KzsJ
z9nh8mmyxrMj3QCCpPEjEhO9EFNuAvpGunVwck2TkQIDAQABo4GvMIGsMAkGA1Ud
EwQCMAAwCwYDVR0PBAQDAgTwMDEGA1UdJQQqMCgGCCsGAQUFBwMCBggrBgEFBQcD
AwYIKwYBBQUHAwQGCCsGAQUFBwMIMB0GA1UdDgQWBBRpdkDDOylpDbgsETG1GAas
PPpr1DAfBgNVHSMEGDAWgBS5DlGP4Zso7rGPdq4IgJi4V5Pj0DAfBgNVHREEGDAW
gRR0YWthc2hpMzE2QGdtYWlsLmNvbTANBgkqhkiG9w0BAQsFAAOCAgEALH0oe5OB
uxPcNfBlXRP/98eLrhi1lZVjgKm5uiXfywZGd3AtpztYduGMqPAChRV2OAZQcIX1
MwuS2+mV1UspyohVqe4aHMBOg2AYF12lWXgW78mr9oBA7ylATVUcpWOioZ5ZUioj
ep6ZoaBN4lAQFA8QHgiY2wgDjRw4ew4MYHV8jareJiZ90rpgUM4XO6FP91gy39qh
I59Y3IQLW0RPBisWswH/oeOxfnxXZkXxNLvhjG9aslvOjyV5vwgJOx8Ag0urmmbn
YHBia8o6qTzKeh3bvlBCNOu5m4yL3LpzLAk+xWWvCB3jjanLkYtuIkF9t7zi7Fz1
nW5W1GXGV3i4N1ucD6r3B2V8leSYAI9BetUUSDvvAXlqpr5lYgP+Byk3gTxdcdw8
kv856mkj3QL+/POBBbfGHG/PzPCFwkIk8dO1nvSdHCDOtGWz7pPLWUujnuDzajnz
bl22q1hEno5EmLuE2rJ5WkuGXOnfK9o9safb9XWNV85TyL1rhCbFPkkrKHVwcCQx
13UiZPqoHDFAUVz3jyfPqpqgpJh7JSt49XF173Z2cBljPr4MJ8XFm4boXy70JmGq
2lokvE4aThqkJjmtFiYZoDN++fRr+U9asjCa00CwkJu5ni+YmvoDPHl6LvOp7+eg
qiJ+etN6FGAT/fAvX1G8PVMt+X6HbVNz/Y0=
-----END CERTIFICATE-----
