Certificate:
    Data:
        Version: 3 (0x2)
        Serial Number: 137858455820 (0x201901190c)
    Signature Algorithm: sha256WithRSAEncryption
        Issuer: C=JP, ST=Ehime, L=Matsuyama, O=Personal Use, O=TakashiSasaki, OU=TakashiSasaki CA, CN=Takashi SASAKI Certification Authority
        Validity
            Not Before: Feb 18 14:46:35 2018 GMT
            Not After : Jan 25 14:46:35 2118 GMT
        Subject: C=JP, ST=Ehime, L=Matsuyama, O=Personal Use, O=TakashiSasaki, OU=Time Stamping Authority, CN=Takashi SASAKI TSA
        Subject Public Key Info:
            Public Key Algorithm: rsaEncryption
                Public-Key: (2048 bit)
                Modulus:
                    00:cd:3c:4c:fa:de:66:5e:de:96:49:35:c1:a9:af:
                    4d:0e:f0:5e:ab:d2:17:24:ea:e2:45:85:93:0d:6e:
                    0b:3e:d6:ba:dc:4f:0b:bb:16:de:7b:d4:1d:bb:66:
                    25:d2:50:47:ac:f8:b4:7b:8a:18:fa:f2:9d:79:a8:
                    c9:aa:e2:f8:8e:62:4d:46:a7:c2:db:fc:58:3f:1b:
                    e1:64:11:06:74:06:38:11:02:22:cf:96:5e:2b:32:
                    00:53:30:d8:9a:c6:18:92:27:bd:61:41:14:71:00:
                    77:af:5e:76:c8:98:b9:0c:bb:2c:8d:60:e9:65:75:
                    22:43:d2:a8:1b:1d:75:81:b4:0a:37:7c:dd:44:d4:
                    c2:fc:07:a6:93:7a:a3:28:0c:ae:02:76:74:e9:8d:
                    be:44:23:6a:c2:a9:34:43:ba:c5:88:8e:65:77:93:
                    98:eb:5b:e8:30:e9:fe:80:5e:7e:c3:6b:17:8e:3e:
                    ac:e4:c4:13:f0:f1:30:e4:10:5e:9c:bc:03:3b:fa:
                    bc:23:91:bc:38:32:72:61:12:3f:a2:c8:c6:5b:e5:
                    e2:c9:5e:ff:bb:01:15:13:59:17:46:1a:4f:88:0c:
                    ec:30:7f:02:77:34:fe:be:78:7c:88:9a:74:83:b7:
                    ff:87:70:2d:4c:d8:b9:c4:c8:a8:bf:c8:6a:9c:3f:
                    6b:3d
                Exponent: 65537 (0x10001)
        X509v3 extensions:
            X509v3 Basic Constraints: 
                CA:FALSE
            X509v3 Extended Key Usage: 
                Time Stamping
            X509v3 Subject Key Identifier: 
                74:A9:64:DC:2B:3B:97:95:EB:36:5C:DB:16:D9:89:4C:0F:7A:17:E0
            X509v3 Authority Key Identifier: 
                keyid:B9:0E:51:8F:E1:9B:28:EE:B1:8F:76:AE:08:80:98:B8:57:93:E3:D0

            X509v3 Issuer Alternative Name: 
                email:takashi316+ca@gmail.com
            X509v3 Subject Alternative Name: 
                email:takashi316+tsa@gmail.com
    Signature Algorithm: sha256WithRSAEncryption
         7b:f4:81:79:68:a1:c6:d3:cf:9a:8a:0f:b6:1f:ef:b5:5a:c3:
         08:b3:d1:3c:f8:ae:0c:3f:fa:b0:98:91:bf:0e:70:3e:3d:9c:
         86:cb:a1:61:a7:e7:ca:06:c7:84:bf:ed:96:8f:f4:9e:c7:dc:
         cc:82:e4:00:d9:ce:d1:a1:f7:c1:a4:ad:21:5d:af:05:21:a4:
         b0:14:f4:21:5c:29:0c:78:dd:88:25:53:e6:23:97:de:1b:aa:
         c3:b1:94:94:79:9c:30:f1:46:46:a4:44:dd:56:00:7e:70:fb:
         99:80:da:74:cd:4e:7c:3f:4f:de:38:7c:8b:3b:17:5f:10:25:
         94:c5:5d:70:f4:fe:39:12:49:57:29:19:39:05:ec:7f:36:be:
         2e:dc:94:90:28:c9:a9:ab:01:16:50:14:f3:c1:07:78:c0:c4:
         9f:74:df:3c:28:ab:f8:07:f6:d9:65:06:16:2a:8d:54:c8:a4:
         d9:17:5e:27:66:11:47:f2:bc:9c:cc:ee:f6:4f:4b:83:f5:90:
         aa:f9:a9:b8:b4:11:da:09:61:47:60:70:c3:8f:a0:86:61:e5:
         be:f4:0c:a3:cd:75:4d:32:50:09:ce:ef:be:f0:86:2d:e6:f5:
         fe:70:49:02:04:e0:9c:e3:66:ee:63:26:88:ff:82:d5:e6:33:
         14:72:34:a8:7e:62:1e:a8:10:7c:0e:e0:4d:00:db:fc:6e:c3:
         8e:2f:28:06:67:a1:07:4f:39:c3:38:af:75:1a:6e:83:e0:6f:
         b4:d4:ee:f7:08:90:ac:52:76:41:c6:d3:26:08:42:92:79:d1:
         db:23:4a:71:2b:83:4f:f5:b1:13:a5:d3:db:bb:f1:e3:cc:13:
         4a:db:bd:9a:ec:69:c5:10:27:4d:fc:e6:fa:c4:9b:97:ab:06:
         eb:1e:e6:18:ab:8a:ca:e9:ca:cb:26:73:ae:e2:e7:45:86:45:
         9f:6c:25:33:db:a0:cf:67:c4:67:bf:9e:15:00:5f:31:10:8a:
         28:c3:99:59:fa:ea:99:a5:3e:b2:7d:49:44:7c:40:25:b8:cf:
         c6:f4:45:c7:10:5e:f3:81:f8:6e:db:fa:a6:ba:8c:01:bf:dc:
         68:60:73:15:42:3a:2e:da:f9:04:89:26:d1:40:9f:12:d5:8d:
         60:59:72:12:53:eb:70:f5:bd:12:c2:f7:3b:23:9e:e9:4d:79:
         54:38:f6:27:11:63:6d:d3:41:22:11:b1:6d:b4:eb:af:04:b1:
         12:63:91:70:ac:ae:f2:36:5f:83:46:d9:aa:ed:1e:80:0e:2b:
         75:b2:e7:d8:ef:de:c0:a0:f9:ea:30:01:8a:a4:e6:68:41:06:
         30:4e:0a:a2:86:a0:61:77
-----BEGIN CERTIFICATE-----
MIIFezCCA2OgAwIBAgIFIBkBGQwwDQYJKoZIhvcNAQELBQAwgawxCzAJBgNVBAYT
AkpQMQ4wDAYDVQQIDAVFaGltZTESMBAGA1UEBwwJTWF0c3V5YW1hMRUwEwYDVQQK
DAxQZXJzb25hbCBVc2UxFjAUBgNVBAoMDVRha2FzaGlTYXNha2kxGTAXBgNVBAsM
EFRha2FzaGlTYXNha2kgQ0ExLzAtBgNVBAMMJlRha2FzaGkgU0FTQUtJIENlcnRp
ZmljYXRpb24gQXV0aG9yaXR5MCAXDTE4MDIxODE0NDYzNVoYDzIxMTgwMTI1MTQ0
NjM1WjCBnzELMAkGA1UEBhMCSlAxDjAMBgNVBAgMBUVoaW1lMRIwEAYDVQQHDAlN
YXRzdXlhbWExFTATBgNVBAoMDFBlcnNvbmFsIFVzZTEWMBQGA1UECgwNVGFrYXNo
aVNhc2FraTEgMB4GA1UECwwXVGltZSBTdGFtcGluZyBBdXRob3JpdHkxGzAZBgNV
BAMMElRha2FzaGkgU0FTQUtJIFRTQTCCASIwDQYJKoZIhvcNAQEBBQADggEPADCC
AQoCggEBAM08TPreZl7elkk1wamvTQ7wXqvSFyTq4kWFkw1uCz7WutxPC7sW3nvU
HbtmJdJQR6z4tHuKGPrynXmoyari+I5iTUanwtv8WD8b4WQRBnQGOBECIs+WXisy
AFMw2JrGGJInvWFBFHEAd69edsiYuQy7LI1g6WV1IkPSqBsddYG0Cjd83UTUwvwH
ppN6oygMrgJ2dOmNvkQjasKpNEO6xYiOZXeTmOtb6DDp/oBefsNrF44+rOTEE/Dx
MOQQXpy8Azv6vCORvDgycmESP6LIxlvl4sle/7sBFRNZF0YaT4gM7DB/Anc0/r54
fIiadIO3/4dwLUzYucTIqL/Iapw/az0CAwEAAaOBrDCBqTAJBgNVHRMEAjAAMBMG
A1UdJQQMMAoGCCsGAQUFBwMIMB0GA1UdDgQWBBR0qWTcKzuXles2XNsW2YlMD3oX
4DAfBgNVHSMEGDAWgBS5DlGP4Zso7rGPdq4IgJi4V5Pj0DAiBgNVHRIEGzAZgRd0
YWthc2hpMzE2K2NhQGdtYWlsLmNvbTAjBgNVHREEHDAagRh0YWthc2hpMzE2K3Rz
YUBnbWFpbC5jb20wDQYJKoZIhvcNAQELBQADggIBAHv0gXloocbTz5qKD7Yf77Va
wwiz0Tz4rgw/+rCYkb8OcD49nIbLoWGn58oGx4S/7ZaP9J7H3MyC5ADZztGh98Gk
rSFdrwUhpLAU9CFcKQx43YglU+Yjl94bqsOxlJR5nDDxRkakRN1WAH5w+5mA2nTN
Tnw/T944fIs7F18QJZTFXXD0/jkSSVcpGTkF7H82vi7clJAoyamrARZQFPPBB3jA
xJ903zwoq/gH9tllBhYqjVTIpNkXXidmEUfyvJzM7vZPS4P1kKr5qbi0EdoJYUdg
cMOPoIZh5b70DKPNdU0yUAnO777whi3m9f5wSQIE4JzjZu5jJoj/gtXmMxRyNKh+
Yh6oEHwO4E0A2/xuw44vKAZnoQdPOcM4r3UaboPgb7TU7vcIkKxSdkHG0yYIQpJ5
0dsjSnErg0/1sROl09u78ePME0rbvZrsacUQJ0385vrEm5erBuse5hirisrpyssm
c67i50WGRZ9sJTPboM9nxGe/nhUAXzEQiijDmVn66pmlPrJ9SUR8QCW4z8b0RccQ
XvOB+G7b+qa6jAG/3GhgcxVCOi7a+QSJJtFAnxLVjWBZchJT63D1vRLC9zsjnulN
eVQ49icRY23TQSIRsW20668EsRJjkXCsrvI2X4NG2artHoAOK3Wy59jv3sCg+eow
AYqk5mhBBjBOCqKGoGF3
-----END CERTIFICATE-----
