Certificate:
    Data:
        Version: 3 (0x2)
        Serial Number: 137858455817 (0x2019011909)
    Signature Algorithm: sha256WithRSAEncryption
        Issuer: C=JP, ST=Ehime, L=Matsuyama, O=Personal Use, O=TakashiSasaki, OU=TakashiSasaki CA, CN=Takashi SASAKI Certification Authority
        Validity
            Not Before: Feb 17 07:20:30 2018 GMT
            Not After : Jan 24 07:20:30 2118 GMT
        Subject: C=JP, ST=Ehime, L=Matsuyama, O=Personal Use, O=TakashiSasaki, OU=SSH Key, OU=SurfacePro4, OU=takashi, CN=Takashi SASAKI
        Subject Public Key Info:
            Public Key Algorithm: rsaEncryption
                Public-Key: (2048 bit)
                Modulus:
                    00:bb:d2:97:1b:25:6d:43:1e:a4:ec:81:9a:a7:e5:
                    bf:2e:51:f9:66:d3:a9:19:02:c3:20:e4:4c:1b:e0:
                    55:82:f2:1c:8a:39:f6:bd:b4:1a:9e:78:df:24:a5:
                    4f:42:2f:fa:9c:3e:e7:76:49:3b:30:e4:12:09:5f:
                    7b:db:e3:81:ac:cc:28:d0:b5:f8:ef:de:f0:ca:b4:
                    49:12:b1:e2:f5:75:b1:e1:eb:e4:ff:8c:12:23:ed:
                    a4:50:85:7a:76:1f:77:2b:e7:b5:07:b2:eb:44:9c:
                    f5:2e:02:e6:ee:22:c7:e7:2e:38:f3:30:68:3c:98:
                    53:3c:28:81:78:95:b8:cf:b4:f8:19:2b:46:b9:73:
                    ed:3b:7b:8d:62:c8:dc:8e:06:ac:9b:b9:73:29:1c:
                    4f:91:d1:8b:3a:1a:e1:c1:db:11:cb:70:d8:ec:e7:
                    ec:75:f2:85:7c:9a:ec:92:3d:b2:5e:40:ba:7d:0e:
                    67:e0:65:5a:d5:94:d8:13:95:a2:d4:26:b5:53:b8:
                    01:d4:3a:bf:f8:a7:b4:35:db:af:c8:94:ea:f1:b7:
                    e0:aa:9a:67:3e:53:cf:b2:8c:89:a5:2a:26:03:7e:
                    0c:23:8b:24:8c:b0:3f:e6:c2:53:bc:2b:2d:64:9d:
                    1f:d2:c4:9e:6d:94:18:ce:9d:aa:99:26:a1:ac:21:
                    8c:69
                Exponent: 65537 (0x10001)
        X509v3 extensions:
            X509v3 Basic Constraints: 
                CA:FALSE
            X509v3 Key Usage: 
                Digital Signature, Non Repudiation, Key Encipherment, Data Encipherment
            X509v3 Extended Key Usage: 
                TLS Web Client Authentication, Code Signing, E-mail Protection, Time Stamping
            X509v3 Subject Key Identifier: 
                FF:EE:43:F9:EF:2C:59:C6:15:E5:24:06:E2:29:8B:25:DC:42:ED:CC
            X509v3 Authority Key Identifier: 
                keyid:B9:0E:51:8F:E1:9B:28:EE:B1:8F:76:AE:08:80:98:B8:57:93:E3:D0

            X509v3 Subject Alternative Name: 
                email:takashi316@gmail.com
    Signature Algorithm: sha256WithRSAEncryption
         28:50:d6:25:97:dc:30:e1:2a:d8:f8:94:cb:02:01:08:ed:5b:
         ac:b1:2a:29:b1:2e:8b:39:9b:30:97:70:69:57:23:2d:df:3d:
         c9:f0:65:b2:cb:3c:39:8e:6a:a2:49:c6:c1:d4:c9:d7:27:c8:
         39:af:2f:64:86:ce:e7:df:a4:91:95:45:1a:38:84:e5:1a:80:
         07:49:10:52:35:73:ba:f9:b2:36:ea:7f:a1:36:0e:ec:a2:30:
         b8:26:1d:6a:8a:f0:6c:ff:01:bd:36:ed:00:54:e2:7b:d1:e2:
         6c:57:5f:f3:b9:97:5c:c0:cf:b7:cb:11:d1:b7:a0:4b:4f:c1:
         bf:68:14:50:63:86:68:3e:9c:d6:ac:fc:ed:e2:de:a3:1e:f3:
         e4:9b:9d:2d:80:01:51:f9:d2:bc:36:04:57:32:01:3d:8d:8a:
         ee:9a:03:0b:85:ed:e9:45:9e:8a:5f:a1:0f:a0:1a:f4:42:15:
         09:14:a1:47:35:2a:d9:a4:6a:29:5e:be:b3:f5:9f:c8:d3:f3:
         48:b2:8d:75:59:1c:53:31:45:66:0f:bc:5d:5a:f8:9f:74:b2:
         d4:9d:f3:a8:cd:4c:6e:b9:15:d9:32:ab:be:f6:3e:89:b0:be:
         a5:5f:c2:1c:05:65:49:4e:7c:ee:b7:ef:de:9a:c2:0f:ae:b3:
         3c:31:cf:ff:1e:8a:13:d3:23:d2:13:ad:3c:4e:38:66:ff:03:
         78:84:b6:45:2a:fc:36:0c:2e:00:68:ee:5b:11:6a:cb:ae:83:
         72:02:a5:43:10:22:a8:e3:1a:b2:d9:f1:a8:4f:3d:46:10:12:
         83:4a:0f:23:30:8e:1b:f8:ba:bb:c8:e3:38:2d:f6:98:1f:13:
         11:25:5c:d8:01:54:e6:15:d9:9d:6d:20:c2:6b:bc:34:0a:2e:
         f4:6f:9c:00:4c:1f:a1:93:d5:01:23:64:82:20:44:4b:fa:96:
         7b:bd:ea:04:d9:28:8a:8d:ca:95:54:ac:2f:d8:1d:0b:c5:c9:
         fa:5f:33:ae:8b:39:b6:98:79:b6:3d:6c:00:5a:cf:c7:40:22:
         49:63:d0:c2:20:35:54:ed:db:4f:97:a0:d3:ca:6d:ec:b8:db:
         a8:4e:4f:7b:32:c0:5f:2f:19:42:07:7a:a6:c6:3b:6e:e0:bf:
         16:21:f5:ca:4a:59:80:f2:e4:0b:77:a4:d1:e6:81:5e:e4:8a:
         4e:83:c2:e1:86:81:21:9c:a9:96:0d:d8:c1:49:5b:07:e0:cf:
         d6:09:3d:13:ac:f7:1d:4f:fd:b1:c0:a2:e6:85:86:d4:e0:60:
         2c:6c:5e:97:7f:04:8d:04:ce:35:80:44:05:12:7a:db:3d:ec:
         b9:8a:f3:b5:bd:72:40:35
-----BEGIN CERTIFICATE-----
MIIFkjCCA3qgAwIBAgIFIBkBGQkwDQYJKoZIhvcNAQELBQAwgawxCzAJBgNVBAYT
AkpQMQ4wDAYDVQQIDAVFaGltZTESMBAGA1UEBwwJTWF0c3V5YW1hMRUwEwYDVQQK
DAxQZXJzb25hbCBVc2UxFjAUBgNVBAoMDVRha2FzaGlTYXNha2kxGTAXBgNVBAsM
EFRha2FzaGlTYXNha2kgQ0ExLzAtBgNVBAMMJlRha2FzaGkgU0FTQUtJIENlcnRp
ZmljYXRpb24gQXV0aG9yaXR5MCAXDTE4MDIxNzA3MjAzMFoYDzIxMTgwMTI0MDcy
MDMwWjCBszELMAkGA1UEBhMCSlAxDjAMBgNVBAgMBUVoaW1lMRIwEAYDVQQHDAlN
YXRzdXlhbWExFTATBgNVBAoMDFBlcnNvbmFsIFVzZTEWMBQGA1UECgwNVGFrYXNo
aVNhc2FraTEQMA4GA1UECwwHU1NIIEtleTEUMBIGA1UECwwLU3VyZmFjZVBybzQx
EDAOBgNVBAsMB3Rha2FzaGkxFzAVBgNVBAMMDlRha2FzaGkgU0FTQUtJMIIBIjAN
BgkqhkiG9w0BAQEFAAOCAQ8AMIIBCgKCAQEAu9KXGyVtQx6k7IGap+W/LlH5ZtOp
GQLDIORMG+BVgvIcijn2vbQannjfJKVPQi/6nD7ndkk7MOQSCV972+OBrMwo0LX4
797wyrRJErHi9XWx4evk/4wSI+2kUIV6dh93K+e1B7LrRJz1LgLm7iLH5y448zBo
PJhTPCiBeJW4z7T4GStGuXPtO3uNYsjcjgasm7lzKRxPkdGLOhrhwdsRy3DY7Ofs
dfKFfJrskj2yXkC6fQ5n4GVa1ZTYE5Wi1Ca1U7gB1Dq/+Ke0NduvyJTq8bfgqppn
PlPPsoyJpSomA34MI4skjLA/5sJTvCstZJ0f0sSebZQYzp2qmSahrCGMaQIDAQAB
o4GvMIGsMAkGA1UdEwQCMAAwCwYDVR0PBAQDAgTwMDEGA1UdJQQqMCgGCCsGAQUF
BwMCBggrBgEFBQcDAwYIKwYBBQUHAwQGCCsGAQUFBwMIMB0GA1UdDgQWBBT/7kP5
7yxZxhXlJAbiKYsl3ELtzDAfBgNVHSMEGDAWgBS5DlGP4Zso7rGPdq4IgJi4V5Pj
0DAfBgNVHREEGDAWgRR0YWthc2hpMzE2QGdtYWlsLmNvbTANBgkqhkiG9w0BAQsF
AAOCAgEAKFDWJZfcMOEq2PiUywIBCO1brLEqKbEuizmbMJdwaVcjLd89yfBlsss8
OY5qoknGwdTJ1yfIOa8vZIbO59+kkZVFGjiE5RqAB0kQUjVzuvmyNup/oTYO7KIw
uCYdaorwbP8BvTbtAFTie9HibFdf87mXXMDPt8sR0begS0/Bv2gUUGOGaD6c1qz8
7eLeox7z5JudLYABUfnSvDYEVzIBPY2K7poDC4Xt6UWeil+hD6Aa9EIVCRShRzUq
2aRqKV6+s/WfyNPzSLKNdVkcUzFFZg+8XVr4n3Sy1J3zqM1MbrkV2TKrvvY+ibC+
pV/CHAVlSU587rfv3prCD66zPDHP/x6KE9Mj0hOtPE44Zv8DeIS2RSr8NgwuAGju
WxFqy66DcgKlQxAiqOMastnxqE89RhASg0oPIzCOG/i6u8jjOC32mB8TESVc2AFU
5hXZnW0gwmu8NAou9G+cAEwfoZPVASNkgiBES/qWe73qBNkoio3KlVSsL9gdC8XJ
+l8zros5tph5tj1sAFrPx0AiSWPQwiA1VO3bT5eg08pt7LjbqE5PezLAXy8ZQgd6
psY7buC/FiH1ykpZgPLkC3ek0eaBXuSKToPC4YaBIZyplg3YwUlbB+DP1gk9E6z3
HU/9scCi5oWG1OBgLGxel38EjQTONYBEBRJ62z3suYrztb1yQDU=
-----END CERTIFICATE-----
