Certificate:
    Data:
        Version: 3 (0x2)
        Serial Number: 137858455822 (0x201901190e)
    Signature Algorithm: sha256WithRSAEncryption
        Issuer: C=JP, ST=Ehime, L=Matsuyama, O=Personal Use, O=TakashiSasaki, OU=TakashiSasaki CA, CN=Takashi SASAKI Certification Authority
        Validity
            Not Before: Feb 19 01:49:45 2018 GMT
            Not After : Jan 26 01:49:45 2118 GMT
        Subject: C=JP, ST=Ehime, L=Matsuyama, O=Personal Use, O=TakashiSasaki, OU=Time Stamping Authority, CN=Takashi SASAKI TSA
        Subject Public Key Info:
            Public Key Algorithm: rsaEncryption
                Public-Key: (2048 bit)
                Modulus:
                    00:cd:3c:4c:fa:de:66:5e:de:96:49:35:c1:a9:af:
                    4d:0e:f0:5e:ab:d2:17:24:ea:e2:45:85:93:0d:6e:
                    0b:3e:d6:ba:dc:4f:0b:bb:16:de:7b:d4:1d:bb:66:
                    25:d2:50:47:ac:f8:b4:7b:8a:18:fa:f2:9d:79:a8:
                    c9:aa:e2:f8:8e:62:4d:46:a7:c2:db:fc:58:3f:1b:
                    e1:64:11:06:74:06:38:11:02:22:cf:96:5e:2b:32:
                    00:53:30:d8:9a:c6:18:92:27:bd:61:41:14:71:00:
                    77:af:5e:76:c8:98:b9:0c:bb:2c:8d:60:e9:65:75:
                    22:43:d2:a8:1b:1d:75:81:b4:0a:37:7c:dd:44:d4:
                    c2:fc:07:a6:93:7a:a3:28:0c:ae:02:76:74:e9:8d:
                    be:44:23:6a:c2:a9:34:43:ba:c5:88:8e:65:77:93:
                    98:eb:5b:e8:30:e9:fe:80:5e:7e:c3:6b:17:8e:3e:
                    ac:e4:c4:13:f0:f1:30:e4:10:5e:9c:bc:03:3b:fa:
                    bc:23:91:bc:38:32:72:61:12:3f:a2:c8:c6:5b:e5:
                    e2:c9:5e:ff:bb:01:15:13:59:17:46:1a:4f:88:0c:
                    ec:30:7f:02:77:34:fe:be:78:7c:88:9a:74:83:b7:
                    ff:87:70:2d:4c:d8:b9:c4:c8:a8:bf:c8:6a:9c:3f:
                    6b:3d
                Exponent: 65537 (0x10001)
        X509v3 extensions:
            X509v3 Basic Constraints: 
                CA:FALSE
            X509v3 Extended Key Usage: critical
                Time Stamping
            X509v3 Subject Key Identifier: 
                74:A9:64:DC:2B:3B:97:95:EB:36:5C:DB:16:D9:89:4C:0F:7A:17:E0
            X509v3 Authority Key Identifier: 
                keyid:B9:0E:51:8F:E1:9B:28:EE:B1:8F:76:AE:08:80:98:B8:57:93:E3:D0

            X509v3 Issuer Alternative Name: 
                email:takashi316+ca@gmail.com
            X509v3 Key Usage: 
                Digital Signature, Non Repudiation
            X509v3 Subject Alternative Name: 
                email:takashi316+tsa@gmail.com
    Signature Algorithm: sha256WithRSAEncryption
         03:bf:7f:cd:01:54:23:8f:9c:9b:92:61:4b:ff:e2:c3:12:29:
         a5:f3:f5:55:c5:67:36:53:70:ae:04:35:3f:ed:99:57:1d:f7:
         aa:b6:4d:f5:63:fb:82:c8:f8:61:af:80:e8:39:8c:c5:92:a5:
         5b:74:58:7a:03:d0:b0:37:8b:1a:d8:ea:17:98:87:0d:c2:fd:
         bc:66:48:df:09:44:ee:b7:4e:19:4f:f2:2d:d1:e9:86:cf:46:
         90:82:b6:aa:e0:ee:46:53:5a:72:d3:91:2e:74:f1:af:76:4a:
         9a:c8:5e:ef:98:c5:de:84:66:17:85:cf:8a:fe:dc:89:80:1c:
         74:80:b1:1d:7e:77:5c:f5:2f:6c:13:07:67:df:68:a6:76:5c:
         77:78:b1:2c:8e:ea:78:c3:20:ea:36:dd:a7:9d:44:c7:e3:87:
         72:77:47:41:4b:3f:e7:43:e6:dd:e0:24:63:2d:3b:a1:9e:78:
         63:d9:68:13:9d:f4:7b:c5:c8:67:20:6d:cb:4a:5a:b1:40:4b:
         ed:a5:92:bf:ea:2d:9b:4d:79:71:28:86:ba:f5:4b:7c:03:63:
         f2:a9:91:09:eb:cd:f3:bf:1a:e4:6a:4d:6d:b5:d6:f9:b0:ce:
         63:1c:91:d8:bb:d1:97:ac:bb:54:d1:1f:a1:8f:40:fb:00:86:
         ab:0e:57:42:4e:3f:d9:89:a6:83:8f:4b:93:d0:a6:40:6d:46:
         c8:35:27:f5:25:06:50:71:ed:5b:59:4b:49:4d:60:66:09:c9:
         1a:f6:61:c6:22:b8:6a:5d:61:2c:5f:6a:84:87:99:be:8d:0d:
         96:e7:87:af:d0:4d:80:cd:7e:50:a4:bd:91:ba:f3:61:7f:61:
         b0:77:a7:fc:f3:3b:42:33:bc:a4:7a:02:5f:b7:0e:53:0d:9b:
         4c:b8:fb:3e:33:08:e7:94:6f:f9:63:41:c9:43:d3:6a:15:36:
         c8:77:1e:b0:28:63:19:10:ee:04:52:bc:05:43:ae:c2:f7:9a:
         b7:74:be:e5:b9:d8:a3:6a:78:39:17:88:42:58:00:e2:fe:e6:
         ee:43:b9:21:84:c8:6f:ec:be:fc:f5:07:d9:2a:56:fd:30:d0:
         ef:59:c9:3c:b3:1a:dd:8e:32:01:57:61:08:3f:eb:aa:8b:d5:
         53:3d:e6:11:ed:a6:9c:9d:67:27:b9:98:00:e3:46:aa:c4:a5:
         72:49:74:69:af:0f:a7:cd:7e:a8:55:e2:cc:2c:cd:e3:a6:92:
         f5:b7:fa:65:2c:38:01:b5:c3:a6:fa:c1:c0:9c:50:39:94:02:
         44:bd:49:d7:32:b8:d2:2c:49:53:94:64:4d:42:d1:14:a8:4d:
         05:28:c6:77:d6:97:92:f6
-----BEGIN CERTIFICATE-----
MIIFizCCA3OgAwIBAgIFIBkBGQ4wDQYJKoZIhvcNAQELBQAwgawxCzAJBgNVBAYT
AkpQMQ4wDAYDVQQIDAVFaGltZTESMBAGA1UEBwwJTWF0c3V5YW1hMRUwEwYDVQQK
DAxQZXJzb25hbCBVc2UxFjAUBgNVBAoMDVRha2FzaGlTYXNha2kxGTAXBgNVBAsM
EFRha2FzaGlTYXNha2kgQ0ExLzAtBgNVBAMMJlRha2FzaGkgU0FTQUtJIENlcnRp
ZmljYXRpb24gQXV0aG9yaXR5MCAXDTE4MDIxOTAxNDk0NVoYDzIxMTgwMTI2MDE0
OTQ1WjCBnzELMAkGA1UEBhMCSlAxDjAMBgNVBAgMBUVoaW1lMRIwEAYDVQQHDAlN
YXRzdXlhbWExFTATBgNVBAoMDFBlcnNvbmFsIFVzZTEWMBQGA1UECgwNVGFrYXNo
aVNhc2FraTEgMB4GA1UECwwXVGltZSBTdGFtcGluZyBBdXRob3JpdHkxGzAZBgNV
BAMMElRha2FzaGkgU0FTQUtJIFRTQTCCASIwDQYJKoZIhvcNAQEBBQADggEPADCC
AQoCggEBAM08TPreZl7elkk1wamvTQ7wXqvSFyTq4kWFkw1uCz7WutxPC7sW3nvU
HbtmJdJQR6z4tHuKGPrynXmoyari+I5iTUanwtv8WD8b4WQRBnQGOBECIs+WXisy
AFMw2JrGGJInvWFBFHEAd69edsiYuQy7LI1g6WV1IkPSqBsddYG0Cjd83UTUwvwH
ppN6oygMrgJ2dOmNvkQjasKpNEO6xYiOZXeTmOtb6DDp/oBefsNrF44+rOTEE/Dx
MOQQXpy8Azv6vCORvDgycmESP6LIxlvl4sle/7sBFRNZF0YaT4gM7DB/Anc0/r54
fIiadIO3/4dwLUzYucTIqL/Iapw/az0CAwEAAaOBvDCBuTAJBgNVHRMEAjAAMBYG
A1UdJQEB/wQMMAoGCCsGAQUFBwMIMB0GA1UdDgQWBBR0qWTcKzuXles2XNsW2YlM
D3oX4DAfBgNVHSMEGDAWgBS5DlGP4Zso7rGPdq4IgJi4V5Pj0DAiBgNVHRIEGzAZ
gRd0YWthc2hpMzE2K2NhQGdtYWlsLmNvbTALBgNVHQ8EBAMCBsAwIwYDVR0RBBww
GoEYdGFrYXNoaTMxNit0c2FAZ21haWwuY29tMA0GCSqGSIb3DQEBCwUAA4ICAQAD
v3/NAVQjj5ybkmFL/+LDEiml8/VVxWc2U3CuBDU/7ZlXHfeqtk31Y/uCyPhhr4Do
OYzFkqVbdFh6A9CwN4sa2OoXmIcNwv28ZkjfCUTut04ZT/It0emGz0aQgraq4O5G
U1py05EudPGvdkqayF7vmMXehGYXhc+K/tyJgBx0gLEdfndc9S9sEwdn32imdlx3
eLEsjup4wyDqNt2nnUTH44dyd0dBSz/nQ+bd4CRjLTuhnnhj2WgTnfR7xchnIG3L
SlqxQEvtpZK/6i2bTXlxKIa69Ut8A2PyqZEJ683zvxrkak1ttdb5sM5jHJHYu9GX
rLtU0R+hj0D7AIarDldCTj/ZiaaDj0uT0KZAbUbINSf1JQZQce1bWUtJTWBmCcka
9mHGIrhqXWEsX2qEh5m+jQ2W54ev0E2AzX5QpL2RuvNhf2Gwd6f88ztCM7ykegJf
tw5TDZtMuPs+MwjnlG/5Y0HJQ9NqFTbIdx6wKGMZEO4EUrwFQ67C95q3dL7ludij
ang5F4hCWADi/ubuQ7khhMhv7L789QfZKlb9MNDvWck8sxrdjjIBV2EIP+uqi9VT
PeYR7aacnWcnuZgA40aqxKVySXRprw+nzX6oVeLMLM3jppL1t/plLDgBtcOm+sHA
nFA5lAJEvUnXMrjSLElTlGRNQtEUqE0FKMZ31peS9g==
-----END CERTIFICATE-----
