Certificate:
    Data:
        Version: 3 (0x2)
        Serial Number: 137858455814 (0x2019011906)
    Signature Algorithm: sha256WithRSAEncryption
        Issuer: C=JP, ST=Ehime, L=Matsuyama, O=Personal Use, O=TakashiSasaki, OU=TakashiSasaki CA, CN=Takashi SASAKI Certification Authority/emailAddress=takashi316+ca@gmail.com
        Validity
            Not Before: Feb 16 16:06:16 2018 GMT
            Not After : Jan 23 16:06:16 2118 GMT
        Subject: C=JP, ST=Ehime, L=Matsuyama, O=Personal Use, O=TakashiSasaki, OU=SSH Key, OU=sasaki64, OU=sasaki, CN=Takashi SASAKI
        Subject Public Key Info:
            Public Key Algorithm: rsaEncryption
                Public-Key: (2048 bit)
                Modulus:
                    00:d2:c9:7b:a9:dd:9e:e5:84:c8:71:60:cb:b3:c7:
                    04:ba:8f:70:fc:f9:bd:50:2e:f8:ca:dc:58:94:22:
                    47:29:32:6f:0d:0c:fb:15:17:d9:b8:37:85:43:fd:
                    19:16:eb:df:9d:b3:fe:14:f0:ee:75:67:ec:f3:b8:
                    c8:bc:21:58:ab:fa:22:c6:06:32:3e:47:5e:40:4a:
                    66:af:26:47:63:5e:dc:b7:0f:e7:a6:7c:79:ec:9c:
                    7c:f7:10:0a:9a:6b:ae:8b:11:dd:7a:a8:5c:a4:3d:
                    13:87:9d:f6:f4:1b:6b:e6:b6:22:61:5e:6d:0d:7f:
                    47:06:35:88:cb:80:b3:ad:9e:15:83:8e:25:de:62:
                    0c:6c:25:aa:f7:19:6a:dc:50:24:32:50:96:5f:65:
                    1b:64:44:19:f9:f3:3f:56:b1:99:66:b5:88:e8:8d:
                    40:86:66:13:08:17:d3:56:f2:7a:cb:59:2f:b6:88:
                    fa:df:b7:f1:04:6f:37:89:17:f5:c3:48:3b:10:d6:
                    d4:4a:4a:37:e2:e4:7c:07:ed:c3:09:b5:39:aa:80:
                    47:2a:31:f5:e0:e4:6d:e9:62:5e:a8:90:7d:2b:3b:
                    09:cf:d9:e1:f2:69:b2:c6:b3:23:dd:00:82:a4:f1:
                    23:12:13:bd:10:53:6e:02:fa:46:ba:75:70:72:4d:
                    93:91
                Exponent: 65537 (0x10001)
        X509v3 extensions:
            X509v3 Basic Constraints: 
                CA:FALSE
            X509v3 Key Usage: 
                Digital Signature, Non Repudiation, Key Encipherment, Data Encipherment
            X509v3 Extended Key Usage: 
                TLS Web Client Authentication, Code Signing, E-mail Protection, Time Stamping
            X509v3 Subject Key Identifier: 
                69:76:40:C3:3B:29:69:0D:B8:2C:11:31:B5:18:06:AC:3C:FA:6B:D4
            X509v3 Authority Key Identifier: 
                keyid:B9:0E:51:8F:E1:9B:28:EE:B1:8F:76:AE:08:80:98:B8:57:93:E3:D0

            X509v3 Subject Alternative Name: 
                <EMPTY>

            X509v3 Issuer Alternative Name: 
                email:copy
    Signature Algorithm: sha256WithRSAEncryption
         27:14:bf:79:da:94:ab:c8:a3:b0:20:cd:11:d9:89:42:48:ca:
         bf:8d:ab:01:7d:f0:41:65:65:22:5e:84:01:6b:f1:98:01:02:
         5f:7b:25:1d:d5:92:db:f4:a2:a8:6c:e3:92:d0:a3:20:80:07:
         f9:b4:d6:c6:cf:d7:1a:76:f0:55:95:b6:93:b3:64:51:3b:5f:
         c5:43:d5:f1:eb:16:80:1a:69:8d:85:ea:8a:fa:e5:5f:37:0d:
         e5:85:0b:86:e6:86:45:6b:16:0b:07:13:af:f1:15:6c:49:ad:
         1b:e1:81:fd:97:93:50:6d:8d:c2:70:dc:17:13:94:f8:94:34:
         d1:f6:e7:ca:51:b8:06:38:df:17:97:a9:c4:28:92:68:92:26:
         00:5c:42:30:2e:d1:05:c1:c2:2b:82:0c:a0:97:45:2d:51:77:
         6e:ee:ef:6f:7e:23:00:2b:c0:05:b3:24:34:22:8f:42:9c:b5:
         05:4f:8b:14:01:20:b9:53:94:6d:7e:29:0f:28:b4:96:8e:7c:
         6a:59:d3:f8:60:62:c6:45:89:9b:3a:74:8b:68:d3:3e:ad:24:
         54:be:c8:89:48:5d:cd:d1:9a:fa:cb:f5:db:78:3f:20:d2:6d:
         3f:47:d0:83:e0:6d:08:d2:de:09:62:dc:62:f0:46:4e:ce:57:
         2b:9b:22:6f:81:a4:92:4f:23:c3:71:6f:41:d4:d7:9f:bd:a1:
         af:b5:25:73:6d:23:20:0e:c2:55:ad:ac:21:da:5a:ca:af:61:
         81:2a:fc:50:ac:a3:b0:b6:7f:83:36:f7:03:93:5b:5d:55:79:
         6d:04:67:80:b0:4c:ad:41:01:db:c8:8c:bc:de:b4:c5:3d:85:
         7a:66:a1:3e:6d:3b:14:30:f8:c6:26:33:ae:6f:56:61:2c:00:
         f0:c4:ed:10:a6:66:fd:14:d5:6d:8a:c3:f0:1a:c9:bf:2c:ce:
         19:a6:3c:64:1b:ed:12:0f:47:fb:65:01:a8:9f:97:66:74:0f:
         63:97:5f:63:63:a5:7f:9d:2e:87:3f:84:d7:bb:17:42:e6:37:
         1f:18:be:13:35:91:37:f5:d9:08:3d:f7:64:49:4e:79:5a:3c:
         56:55:1d:5e:3b:14:23:7d:50:74:3f:b1:cd:58:eb:5d:c6:cf:
         36:d6:52:74:77:93:ed:6a:ef:23:94:18:8d:07:aa:e7:21:eb:
         0c:64:06:4b:ef:22:f1:87:98:b2:8b:cc:6a:f2:01:92:e3:a8:
         34:3f:95:82:ae:3d:3e:52:93:36:91:ea:02:15:f9:f2:a2:39:
         79:78:25:b7:1c:cd:a6:55:b0:89:9f:18:50:68:4c:e9:b1:4f:
         cf:6b:4a:cd:13:4d:56:ef
-----BEGIN CERTIFICATE-----
MIIFsTCCA5mgAwIBAgIFIBkBGQYwDQYJKoZIhvcNAQELBQAwgdQxCzAJBgNVBAYT
AkpQMQ4wDAYDVQQIDAVFaGltZTESMBAGA1UEBwwJTWF0c3V5YW1hMRUwEwYDVQQK
DAxQZXJzb25hbCBVc2UxFjAUBgNVBAoMDVRha2FzaGlTYXNha2kxGTAXBgNVBAsM
EFRha2FzaGlTYXNha2kgQ0ExLzAtBgNVBAMMJlRha2FzaGkgU0FTQUtJIENlcnRp
ZmljYXRpb24gQXV0aG9yaXR5MSYwJAYJKoZIhvcNAQkBFhd0YWthc2hpMzE2K2Nh
QGdtYWlsLmNvbTAgFw0xODAyMTYxNjA2MTZaGA8yMTE4MDEyMzE2MDYxNlowga8x
CzAJBgNVBAYTAkpQMQ4wDAYDVQQIDAVFaGltZTESMBAGA1UEBwwJTWF0c3V5YW1h
MRUwEwYDVQQKDAxQZXJzb25hbCBVc2UxFjAUBgNVBAoMDVRha2FzaGlTYXNha2kx
EDAOBgNVBAsMB1NTSCBLZXkxETAPBgNVBAsMCHNhc2FraTY0MQ8wDQYDVQQLDAZz
YXNha2kxFzAVBgNVBAMMDlRha2FzaGkgU0FTQUtJMIIBIjANBgkqhkiG9w0BAQEF
AAOCAQ8AMIIBCgKCAQEA0sl7qd2e5YTIcWDLs8cEuo9w/Pm9UC74ytxYlCJHKTJv
DQz7FRfZuDeFQ/0ZFuvfnbP+FPDudWfs87jIvCFYq/oixgYyPkdeQEpmryZHY17c
tw/npnx57Jx89xAKmmuuixHdeqhcpD0Th5329Btr5rYiYV5tDX9HBjWIy4CzrZ4V
g44l3mIMbCWq9xlq3FAkMlCWX2UbZEQZ+fM/VrGZZrWI6I1AhmYTCBfTVvJ6y1kv
toj637fxBG83iRf1w0g7ENbUSko34uR8B+3DCbU5qoBHKjH14ORt6WJeqJB9KzsJ
z9nh8mmyxrMj3QCCpPEjEhO9EFNuAvpGunVwck2TkQIDAQABo4GqMIGnMAkGA1Ud
EwQCMAAwCwYDVR0PBAQDAgTwMDEGA1UdJQQqMCgGCCsGAQUFBwMCBggrBgEFBQcD
AwYIKwYBBQUHAwQGCCsGAQUFBwMIMB0GA1UdDgQWBBRpdkDDOylpDbgsETG1GAas
PPpr1DAfBgNVHSMEGDAWgBS5DlGP4Zso7rGPdq4IgJi4V5Pj0DAJBgNVHREEAjAA
MA8GA1UdEgQIMAaBBGNvcHkwDQYJKoZIhvcNAQELBQADggIBACcUv3nalKvIo7Ag
zRHZiUJIyr+NqwF98EFlZSJehAFr8ZgBAl97JR3Vktv0oqhs45LQoyCAB/m01sbP
1xp28FWVtpOzZFE7X8VD1fHrFoAaaY2F6or65V83DeWFC4bmhkVrFgsHE6/xFWxJ
rRvhgf2Xk1BtjcJw3BcTlPiUNNH258pRuAY43xeXqcQokmiSJgBcQjAu0QXBwiuC
DKCXRS1Rd27u729+IwArwAWzJDQij0KctQVPixQBILlTlG1+KQ8otJaOfGpZ0/hg
YsZFiZs6dIto0z6tJFS+yIlIXc3RmvrL9dt4PyDSbT9H0IPgbQjS3gli3GLwRk7O
VyubIm+BpJJPI8Nxb0HU15+9oa+1JXNtIyAOwlWtrCHaWsqvYYEq/FCso7C2f4M2
9wOTW11VeW0EZ4CwTK1BAdvIjLzetMU9hXpmoT5tOxQw+MYmM65vVmEsAPDE7RCm
Zv0U1W2Kw/Aayb8szhmmPGQb7RIPR/tlAaifl2Z0D2OXX2NjpX+dLoc/hNe7F0Lm
Nx8YvhM1kTf12Qg992RJTnlaPFZVHV47FCN9UHQ/sc1Y613GzzbWUnR3k+1q7yOU
GI0Hquch6wxkBkvvIvGHmLKLzGryAZLjqDQ/lYKuPT5SkzaR6gIV+fKiOXl4Jbcc
zaZVsImfGFBoTOmxT89rSs0TTVbv
-----END CERTIFICATE-----
