Certificate:
    Data:
        Version: 3 (0x2)
        Serial Number: 137858455819 (0x201901190b)
    Signature Algorithm: sha256WithRSAEncryption
        Issuer: C=JP, ST=Ehime, L=Matsuyama, O=Personal Use, O=TakashiSasaki, OU=TakashiSasaki CA, CN=Takashi SASAKI Certification Authority
        Validity
            Not Before: Feb 17 07:31:22 2018 GMT
            Not After : Jan 24 07:31:22 2118 GMT
        Subject: C=JP, ST=Ehime, L=Matsuyama, O=Personal Use, O=TakashiSasaki, OU=SSH Key, OU=SurfacePro4, OU=takashi, CN=Takashi SASAKI
        Subject Public Key Info:
            Public Key Algorithm: rsaEncryption
                Public-Key: (2048 bit)
                Modulus:
                    00:bb:d2:97:1b:25:6d:43:1e:a4:ec:81:9a:a7:e5:
                    bf:2e:51:f9:66:d3:a9:19:02:c3:20:e4:4c:1b:e0:
                    55:82:f2:1c:8a:39:f6:bd:b4:1a:9e:78:df:24:a5:
                    4f:42:2f:fa:9c:3e:e7:76:49:3b:30:e4:12:09:5f:
                    7b:db:e3:81:ac:cc:28:d0:b5:f8:ef:de:f0:ca:b4:
                    49:12:b1:e2:f5:75:b1:e1:eb:e4:ff:8c:12:23:ed:
                    a4:50:85:7a:76:1f:77:2b:e7:b5:07:b2:eb:44:9c:
                    f5:2e:02:e6:ee:22:c7:e7:2e:38:f3:30:68:3c:98:
                    53:3c:28:81:78:95:b8:cf:b4:f8:19:2b:46:b9:73:
                    ed:3b:7b:8d:62:c8:dc:8e:06:ac:9b:b9:73:29:1c:
                    4f:91:d1:8b:3a:1a:e1:c1:db:11:cb:70:d8:ec:e7:
                    ec:75:f2:85:7c:9a:ec:92:3d:b2:5e:40:ba:7d:0e:
                    67:e0:65:5a:d5:94:d8:13:95:a2:d4:26:b5:53:b8:
                    01:d4:3a:bf:f8:a7:b4:35:db:af:c8:94:ea:f1:b7:
                    e0:aa:9a:67:3e:53:cf:b2:8c:89:a5:2a:26:03:7e:
                    0c:23:8b:24:8c:b0:3f:e6:c2:53:bc:2b:2d:64:9d:
                    1f:d2:c4:9e:6d:94:18:ce:9d:aa:99:26:a1:ac:21:
                    8c:69
                Exponent: 65537 (0x10001)
        X509v3 extensions:
            X509v3 Basic Constraints: 
                CA:FALSE
            X509v3 Key Usage: 
                Digital Signature, Non Repudiation, Key Encipherment, Data Encipherment
            X509v3 Extended Key Usage: 
                TLS Web Client Authentication, Code Signing, E-mail Protection, Time Stamping
            X509v3 Subject Key Identifier: 
                FF:EE:43:F9:EF:2C:59:C6:15:E5:24:06:E2:29:8B:25:DC:42:ED:CC
            X509v3 Authority Key Identifier: 
                keyid:B9:0E:51:8F:E1:9B:28:EE:B1:8F:76:AE:08:80:98:B8:57:93:E3:D0

            X509v3 Issuer Alternative Name: 
                email:takashi316+ca@gmail.com
            X509v3 Subject Alternative Name: 
                email:takashi316@gmail.com
    Signature Algorithm: sha256WithRSAEncryption
         38:f6:8f:4a:9d:e5:3c:43:25:91:97:a0:63:48:35:51:84:f1:
         09:02:cc:33:1e:18:9b:7c:f1:21:5c:fc:cd:05:33:91:2f:76:
         95:be:02:5b:c4:af:82:98:39:89:80:3d:bd:05:b9:a7:e8:cd:
         c6:f3:0c:9d:89:7c:0a:fc:ab:0d:f1:b4:54:95:5d:64:24:00:
         4f:fd:fb:72:3a:cf:29:5c:c0:7d:bb:3a:c3:18:1f:ba:a4:d3:
         2b:fa:9b:94:53:31:2a:a9:d3:e1:af:4c:0a:9a:d6:10:8e:74:
         f9:9d:fb:c0:f3:e9:91:30:6f:27:d3:97:25:de:f5:1f:8a:3a:
         0d:84:eb:43:fe:a0:d9:c2:83:0d:8e:41:ff:b7:0e:3f:43:fc:
         28:38:b1:b8:ae:87:4a:ad:4f:10:f6:7e:db:86:cc:d6:5c:3a:
         3e:04:b8:f6:ea:41:dc:60:5a:e2:48:15:e5:b9:05:f5:45:20:
         9d:8a:bd:d0:1b:80:1a:11:65:27:c2:e1:da:bd:73:83:57:28:
         2d:1f:b2:a6:6b:5c:3a:9b:3b:cc:2d:c3:8c:a1:d1:a9:f4:5a:
         56:79:a1:e2:05:da:9d:cd:59:79:3c:09:c6:17:59:39:90:df:
         21:39:1d:cb:93:c1:eb:ad:c5:da:fb:ca:d1:1b:19:47:1b:6c:
         36:5a:56:62:d0:a0:07:41:5c:32:37:0a:d8:44:a3:00:28:5e:
         47:d2:ae:6e:3b:62:7b:e7:b5:a2:ba:21:b3:bf:28:c0:47:ec:
         e2:f4:08:fd:4a:17:1a:65:03:7e:33:47:cf:b6:e1:7d:a9:3f:
         ba:68:16:ca:ca:4c:90:61:d3:4a:b8:fc:74:fa:01:1c:06:31:
         43:20:d3:8c:11:eb:6d:01:57:65:93:3f:cf:97:9e:53:74:3d:
         21:b7:4d:fc:6f:7d:57:cd:a0:80:d0:5c:aa:20:8b:b4:ce:76:
         3d:74:07:a3:78:df:7a:35:ce:52:69:66:eb:86:de:57:82:34:
         e8:47:63:f2:76:60:45:a7:3e:dc:2b:81:44:84:0f:b7:15:d4:
         38:dc:bd:bc:84:bd:4f:c8:df:17:00:9a:88:66:d0:9c:af:12:
         9e:b5:34:1c:b3:90:50:4c:26:e1:a6:35:69:b3:8e:40:ba:62:
         b4:e6:0b:35:25:37:15:9b:1c:0b:e0:06:fe:7c:13:92:d6:99:
         d7:f9:77:f5:37:d2:96:47:5b:ff:83:04:cb:99:a2:9b:51:05:
         d8:41:4a:f1:18:ea:f5:3c:ba:d0:c9:ee:c7:d7:f4:91:58:52:
         e7:1b:ac:99:6b:b2:ed:1b:98:f0:f8:68:33:01:52:79:d3:28:
         ff:02:24:c8:23:ac:6c:dc
-----BEGIN CERTIFICATE-----
MIIFtjCCA56gAwIBAgIFIBkBGQswDQYJKoZIhvcNAQELBQAwgawxCzAJBgNVBAYT
AkpQMQ4wDAYDVQQIDAVFaGltZTESMBAGA1UEBwwJTWF0c3V5YW1hMRUwEwYDVQQK
DAxQZXJzb25hbCBVc2UxFjAUBgNVBAoMDVRha2FzaGlTYXNha2kxGTAXBgNVBAsM
EFRha2FzaGlTYXNha2kgQ0ExLzAtBgNVBAMMJlRha2FzaGkgU0FTQUtJIENlcnRp
ZmljYXRpb24gQXV0aG9yaXR5MCAXDTE4MDIxNzA3MzEyMloYDzIxMTgwMTI0MDcz
MTIyWjCBszELMAkGA1UEBhMCSlAxDjAMBgNVBAgMBUVoaW1lMRIwEAYDVQQHDAlN
YXRzdXlhbWExFTATBgNVBAoMDFBlcnNvbmFsIFVzZTEWMBQGA1UECgwNVGFrYXNo
aVNhc2FraTEQMA4GA1UECwwHU1NIIEtleTEUMBIGA1UECwwLU3VyZmFjZVBybzQx
EDAOBgNVBAsMB3Rha2FzaGkxFzAVBgNVBAMMDlRha2FzaGkgU0FTQUtJMIIBIjAN
BgkqhkiG9w0BAQEFAAOCAQ8AMIIBCgKCAQEAu9KXGyVtQx6k7IGap+W/LlH5ZtOp
GQLDIORMG+BVgvIcijn2vbQannjfJKVPQi/6nD7ndkk7MOQSCV972+OBrMwo0LX4
797wyrRJErHi9XWx4evk/4wSI+2kUIV6dh93K+e1B7LrRJz1LgLm7iLH5y448zBo
PJhTPCiBeJW4z7T4GStGuXPtO3uNYsjcjgasm7lzKRxPkdGLOhrhwdsRy3DY7Ofs
dfKFfJrskj2yXkC6fQ5n4GVa1ZTYE5Wi1Ca1U7gB1Dq/+Ke0NduvyJTq8bfgqppn
PlPPsoyJpSomA34MI4skjLA/5sJTvCstZJ0f0sSebZQYzp2qmSahrCGMaQIDAQAB
o4HTMIHQMAkGA1UdEwQCMAAwCwYDVR0PBAQDAgTwMDEGA1UdJQQqMCgGCCsGAQUF
BwMCBggrBgEFBQcDAwYIKwYBBQUHAwQGCCsGAQUFBwMIMB0GA1UdDgQWBBT/7kP5
7yxZxhXlJAbiKYsl3ELtzDAfBgNVHSMEGDAWgBS5DlGP4Zso7rGPdq4IgJi4V5Pj
0DAiBgNVHRIEGzAZgRd0YWthc2hpMzE2K2NhQGdtYWlsLmNvbTAfBgNVHREEGDAW
gRR0YWthc2hpMzE2QGdtYWlsLmNvbTANBgkqhkiG9w0BAQsFAAOCAgEAOPaPSp3l
PEMlkZegY0g1UYTxCQLMMx4Ym3zxIVz8zQUzkS92lb4CW8Svgpg5iYA9vQW5p+jN
xvMMnYl8CvyrDfG0VJVdZCQAT/37cjrPKVzAfbs6wxgfuqTTK/qblFMxKqnT4a9M
CprWEI50+Z37wPPpkTBvJ9OXJd71H4o6DYTrQ/6g2cKDDY5B/7cOP0P8KDixuK6H
Sq1PEPZ+24bM1lw6PgS49upB3GBa4kgV5bkF9UUgnYq90BuAGhFlJ8Lh2r1zg1co
LR+ypmtcOps7zC3DjKHRqfRaVnmh4gXanc1ZeTwJxhdZOZDfITkdy5PB663F2vvK
0RsZRxtsNlpWYtCgB0FcMjcK2ESjACheR9Kubjtie+e1orohs78owEfs4vQI/UoX
GmUDfjNHz7bhfak/umgWyspMkGHTSrj8dPoBHAYxQyDTjBHrbQFXZZM/z5eeU3Q9
IbdN/G99V82ggNBcqiCLtM52PXQHo3jfejXOUmlm64beV4I06Edj8nZgRac+3CuB
RIQPtxXUONy9vIS9T8jfFwCaiGbQnK8SnrU0HLOQUEwm4aY1abOOQLpitOYLNSU3
FZscC+AG/nwTktaZ1/l39TfSlkdb/4MEy5mim1EF2EFK8Rjq9Ty60Mnux9f0kVhS
5xusmWuy7RuY8PhoMwFSedMo/wIkyCOsbNw=
-----END CERTIFICATE-----
