Certificate:
    Data:
        Version: 3 (0x2)
        Serial Number: 137858455821 (0x201901190d)
    Signature Algorithm: sha256WithRSAEncryption
        Issuer: C=JP, ST=Ehime, L=Matsuyama, O=Personal Use, O=TakashiSasaki, OU=TakashiSasaki CA, CN=Takashi SASAKI Certification Authority
        Validity
            Not Before: Feb 19 01:46:47 2018 GMT
            Not After : Jan 26 01:46:47 2118 GMT
        Subject: C=JP, ST=Ehime, L=Matsuyama, O=Personal Use, O=TakashiSasaki, OU=Time Stamping Authority, CN=Takashi SASAKI TSA
        Subject Public Key Info:
            Public Key Algorithm: rsaEncryption
                Public-Key: (2048 bit)
                Modulus:
                    00:cd:3c:4c:fa:de:66:5e:de:96:49:35:c1:a9:af:
                    4d:0e:f0:5e:ab:d2:17:24:ea:e2:45:85:93:0d:6e:
                    0b:3e:d6:ba:dc:4f:0b:bb:16:de:7b:d4:1d:bb:66:
                    25:d2:50:47:ac:f8:b4:7b:8a:18:fa:f2:9d:79:a8:
                    c9:aa:e2:f8:8e:62:4d:46:a7:c2:db:fc:58:3f:1b:
                    e1:64:11:06:74:06:38:11:02:22:cf:96:5e:2b:32:
                    00:53:30:d8:9a:c6:18:92:27:bd:61:41:14:71:00:
                    77:af:5e:76:c8:98:b9:0c:bb:2c:8d:60:e9:65:75:
                    22:43:d2:a8:1b:1d:75:81:b4:0a:37:7c:dd:44:d4:
                    c2:fc:07:a6:93:7a:a3:28:0c:ae:02:76:74:e9:8d:
                    be:44:23:6a:c2:a9:34:43:ba:c5:88:8e:65:77:93:
                    98:eb:5b:e8:30:e9:fe:80:5e:7e:c3:6b:17:8e:3e:
                    ac:e4:c4:13:f0:f1:30:e4:10:5e:9c:bc:03:3b:fa:
                    bc:23:91:bc:38:32:72:61:12:3f:a2:c8:c6:5b:e5:
                    e2:c9:5e:ff:bb:01:15:13:59:17:46:1a:4f:88:0c:
                    ec:30:7f:02:77:34:fe:be:78:7c:88:9a:74:83:b7:
                    ff:87:70:2d:4c:d8:b9:c4:c8:a8:bf:c8:6a:9c:3f:
                    6b:3d
                Exponent: 65537 (0x10001)
        X509v3 extensions:
            X509v3 Basic Constraints: 
                CA:FALSE
            X509v3 Extended Key Usage: 
                Time Stamping
            X509v3 Subject Key Identifier: 
                74:A9:64:DC:2B:3B:97:95:EB:36:5C:DB:16:D9:89:4C:0F:7A:17:E0
            X509v3 Authority Key Identifier: 
                keyid:B9:0E:51:8F:E1:9B:28:EE:B1:8F:76:AE:08:80:98:B8:57:93:E3:D0

            X509v3 Issuer Alternative Name: 
                email:takashi316+ca@gmail.com
            X509v3 Key Usage: 
                Digital Signature, Non Repudiation
            X509v3 Subject Alternative Name: 
                email:takashi316+tsa@gmail.com
    Signature Algorithm: sha256WithRSAEncryption
         1e:0e:fd:d4:96:e6:60:6b:dc:3d:82:6e:fc:61:2f:b9:b8:c6:
         83:13:cb:e9:c2:78:3b:9d:18:44:2d:5d:01:a2:b7:38:d7:f6:
         f5:09:bc:70:0e:6b:d9:a0:6f:59:12:3d:6e:9d:52:04:66:b8:
         ac:ff:b5:dd:d5:e5:5b:8e:16:78:f1:54:61:32:73:66:eb:19:
         d4:4e:8a:eb:cc:f1:70:d5:e8:8d:12:cb:9b:90:15:2a:5a:dc:
         ff:bc:a2:92:03:f5:bb:47:da:2b:13:9d:13:9f:81:71:13:a7:
         40:3b:e4:34:21:35:3c:a4:60:39:27:4f:78:ff:9b:cd:e8:5f:
         f1:68:06:b6:46:00:1d:0f:d9:57:96:b1:96:11:a8:57:9f:30:
         eb:20:3b:ad:8f:fa:e2:b5:a3:7d:2b:16:ce:a1:0e:b3:e3:50:
         e3:62:99:6c:62:9e:7d:27:2d:af:9f:7c:84:a9:35:0c:fe:df:
         ae:78:b8:1e:3c:f9:8e:2c:71:e1:56:d5:38:6f:cc:81:f4:f4:
         c7:e3:40:cb:a2:d5:51:50:91:9a:13:80:db:90:ab:5f:b2:d3:
         97:2b:ad:1d:31:59:01:f3:c1:1a:63:df:b9:7b:57:63:13:3f:
         03:59:6a:2f:9d:4f:85:b4:48:bc:d9:e6:05:f6:7f:9c:69:be:
         95:f7:06:ea:a1:db:7b:2a:35:4e:3e:e4:91:17:ec:1a:dc:33:
         2b:f2:89:d6:72:d4:e1:71:d5:b3:f0:77:e7:0d:be:6c:c5:ef:
         47:45:da:c4:04:3b:c1:ac:ba:31:02:e5:5f:bc:7b:02:8c:9f:
         43:88:83:e3:20:4d:28:2d:a5:d1:7a:3b:c5:0b:4e:ec:cb:77:
         68:d0:f1:80:35:04:a9:d9:56:a4:bc:d9:7f:e8:1e:72:95:bb:
         77:88:ea:84:9a:17:2a:26:39:48:27:c3:60:b9:e8:92:06:c3:
         01:6f:17:3c:72:13:11:7e:d3:2b:55:d3:dd:6d:91:a1:d6:0e:
         5d:1b:2e:53:e9:c4:e6:3a:da:f0:c0:c7:a2:75:5c:09:46:72:
         7d:06:0c:b2:ec:02:34:08:39:bf:d2:cc:08:4b:98:55:2c:94:
         33:ae:31:37:b9:23:0c:bd:47:8c:3c:66:b7:3d:5f:93:34:8b:
         f1:76:90:da:41:82:d8:91:e6:ce:8b:e6:95:2a:83:a4:92:fa:
         64:2c:31:0e:3d:4b:9e:2b:da:ae:45:3c:93:72:9e:e6:62:dc:
         c8:da:d9:bd:e6:06:c9:7a:54:b0:e4:3d:1a:f3:db:5a:39:bd:
         27:e2:94:5c:a3:cc:78:2a:c8:42:e2:05:d1:f0:d2:9b:5b:ce:
         ab:f4:2d:ae:3c:f7:46:b5
-----BEGIN CERTIFICATE-----
MIIFiDCCA3CgAwIBAgIFIBkBGQ0wDQYJKoZIhvcNAQELBQAwgawxCzAJBgNVBAYT
AkpQMQ4wDAYDVQQIDAVFaGltZTESMBAGA1UEBwwJTWF0c3V5YW1hMRUwEwYDVQQK
DAxQZXJzb25hbCBVc2UxFjAUBgNVBAoMDVRha2FzaGlTYXNha2kxGTAXBgNVBAsM
EFRha2FzaGlTYXNha2kgQ0ExLzAtBgNVBAMMJlRha2FzaGkgU0FTQUtJIENlcnRp
ZmljYXRpb24gQXV0aG9yaXR5MCAXDTE4MDIxOTAxNDY0N1oYDzIxMTgwMTI2MDE0
NjQ3WjCBnzELMAkGA1UEBhMCSlAxDjAMBgNVBAgMBUVoaW1lMRIwEAYDVQQHDAlN
YXRzdXlhbWExFTATBgNVBAoMDFBlcnNvbmFsIFVzZTEWMBQGA1UECgwNVGFrYXNo
aVNhc2FraTEgMB4GA1UECwwXVGltZSBTdGFtcGluZyBBdXRob3JpdHkxGzAZBgNV
BAMMElRha2FzaGkgU0FTQUtJIFRTQTCCASIwDQYJKoZIhvcNAQEBBQADggEPADCC
AQoCggEBAM08TPreZl7elkk1wamvTQ7wXqvSFyTq4kWFkw1uCz7WutxPC7sW3nvU
HbtmJdJQR6z4tHuKGPrynXmoyari+I5iTUanwtv8WD8b4WQRBnQGOBECIs+WXisy
AFMw2JrGGJInvWFBFHEAd69edsiYuQy7LI1g6WV1IkPSqBsddYG0Cjd83UTUwvwH
ppN6oygMrgJ2dOmNvkQjasKpNEO6xYiOZXeTmOtb6DDp/oBefsNrF44+rOTEE/Dx
MOQQXpy8Azv6vCORvDgycmESP6LIxlvl4sle/7sBFRNZF0YaT4gM7DB/Anc0/r54
fIiadIO3/4dwLUzYucTIqL/Iapw/az0CAwEAAaOBuTCBtjAJBgNVHRMEAjAAMBMG
A1UdJQQMMAoGCCsGAQUFBwMIMB0GA1UdDgQWBBR0qWTcKzuXles2XNsW2YlMD3oX
4DAfBgNVHSMEGDAWgBS5DlGP4Zso7rGPdq4IgJi4V5Pj0DAiBgNVHRIEGzAZgRd0
YWthc2hpMzE2K2NhQGdtYWlsLmNvbTALBgNVHQ8EBAMCBsAwIwYDVR0RBBwwGoEY
dGFrYXNoaTMxNit0c2FAZ21haWwuY29tMA0GCSqGSIb3DQEBCwUAA4ICAQAeDv3U
luZga9w9gm78YS+5uMaDE8vpwng7nRhELV0Borc41/b1CbxwDmvZoG9ZEj1unVIE
Zris/7Xd1eVbjhZ48VRhMnNm6xnUTorrzPFw1eiNEsubkBUqWtz/vKKSA/W7R9or
E50Tn4FxE6dAO+Q0ITU8pGA5J094/5vN6F/xaAa2RgAdD9lXlrGWEahXnzDrIDut
j/ritaN9KxbOoQ6z41DjYplsYp59Jy2vn3yEqTUM/t+ueLgePPmOLHHhVtU4b8yB
9PTH40DLotVRUJGaE4DbkKtfstOXK60dMVkB88EaY9+5e1djEz8DWWovnU+FtEi8
2eYF9n+cab6V9wbqodt7KjVOPuSRF+wa3DMr8onWctThcdWz8HfnDb5sxe9HRdrE
BDvBrLoxAuVfvHsCjJ9DiIPjIE0oLaXRejvFC07sy3do0PGANQSp2VakvNl/6B5y
lbt3iOqEmhcqJjlIJ8NgueiSBsMBbxc8chMRftMrVdPdbZGh1g5dGy5T6cTmOtrw
wMeidVwJRnJ9Bgyy7AI0CDm/0swIS5hVLJQzrjE3uSMMvUeMPGa3PV+TNIvxdpDa
QYLYkebOi+aVKoOkkvpkLDEOPUueK9quRTyTcp7mYtzI2tm95gbJelSw5D0a89ta
Ob0n4pRco8x4KshC4gXR8NKbW86r9C2uPPdGtQ==
-----END CERTIFICATE-----
