Certificate:
    Data:
        Version: 3 (0x2)
        Serial Number: 137858455816 (0x2019011908)
    Signature Algorithm: sha256WithRSAEncryption
        Issuer: C=JP, ST=Ehime, L=Matsuyama, O=Personal Use, O=TakashiSasaki, OU=TakashiSasaki CA, CN=Takashi SASAKI Certification Authority/emailAddress=takashi316+ca@gmail.com
        Validity
            Not Before: Feb 17 01:03:21 2018 GMT
            Not After : Jan 24 01:03:21 2118 GMT
        Subject: C=JP, ST=Ehime, L=Matsuyama, O=Personal Use, O=TakashiSasaki, OU=SSH Key, OU=SurfacePro4, OU=takashi, CN=Takashi SASAKI
        Subject Public Key Info:
            Public Key Algorithm: rsaEncryption
                Public-Key: (2048 bit)
                Modulus:
                    00:bb:d2:97:1b:25:6d:43:1e:a4:ec:81:9a:a7:e5:
                    bf:2e:51:f9:66:d3:a9:19:02:c3:20:e4:4c:1b:e0:
                    55:82:f2:1c:8a:39:f6:bd:b4:1a:9e:78:df:24:a5:
                    4f:42:2f:fa:9c:3e:e7:76:49:3b:30:e4:12:09:5f:
                    7b:db:e3:81:ac:cc:28:d0:b5:f8:ef:de:f0:ca:b4:
                    49:12:b1:e2:f5:75:b1:e1:eb:e4:ff:8c:12:23:ed:
                    a4:50:85:7a:76:1f:77:2b:e7:b5:07:b2:eb:44:9c:
                    f5:2e:02:e6:ee:22:c7:e7:2e:38:f3:30:68:3c:98:
                    53:3c:28:81:78:95:b8:cf:b4:f8:19:2b:46:b9:73:
                    ed:3b:7b:8d:62:c8:dc:8e:06:ac:9b:b9:73:29:1c:
                    4f:91:d1:8b:3a:1a:e1:c1:db:11:cb:70:d8:ec:e7:
                    ec:75:f2:85:7c:9a:ec:92:3d:b2:5e:40:ba:7d:0e:
                    67:e0:65:5a:d5:94:d8:13:95:a2:d4:26:b5:53:b8:
                    01:d4:3a:bf:f8:a7:b4:35:db:af:c8:94:ea:f1:b7:
                    e0:aa:9a:67:3e:53:cf:b2:8c:89:a5:2a:26:03:7e:
                    0c:23:8b:24:8c:b0:3f:e6:c2:53:bc:2b:2d:64:9d:
                    1f:d2:c4:9e:6d:94:18:ce:9d:aa:99:26:a1:ac:21:
                    8c:69
                Exponent: 65537 (0x10001)
        X509v3 extensions:
            X509v3 Basic Constraints: 
                CA:FALSE
            X509v3 Key Usage: 
                Digital Signature, Non Repudiation, Key Encipherment, Data Encipherment
            X509v3 Extended Key Usage: 
                TLS Web Client Authentication, Code Signing, E-mail Protection, Time Stamping
            X509v3 Subject Key Identifier: 
                FF:EE:43:F9:EF:2C:59:C6:15:E5:24:06:E2:29:8B:25:DC:42:ED:CC
            X509v3 Authority Key Identifier: 
                keyid:B9:0E:51:8F:E1:9B:28:EE:B1:8F:76:AE:08:80:98:B8:57:93:E3:D0

            X509v3 Subject Alternative Name: 
                email:takashi316@gmail.com
    Signature Algorithm: sha256WithRSAEncryption
         3c:a7:d1:c9:80:aa:c8:8d:a2:b1:47:27:5e:13:6f:e3:00:2c:
         02:12:35:d1:21:9c:f0:d2:c6:a9:7b:7f:04:bd:ce:c2:7f:8f:
         de:f8:9d:25:79:fa:bb:a6:e9:e9:b7:dc:5f:1e:07:2d:b6:9a:
         cc:b2:de:dd:47:89:b6:a5:35:2c:dd:c0:8e:1a:ec:6b:cf:6d:
         47:fb:93:00:89:4f:26:fd:33:e1:79:8c:4b:dd:8a:02:ab:d4:
         4e:db:ef:67:3b:05:84:cc:22:ed:36:66:62:46:de:b8:59:76:
         35:00:06:96:3c:69:1e:32:23:3b:03:0f:63:2a:08:f6:3f:2c:
         15:50:41:d3:ff:64:94:2a:b6:9e:5d:36:7f:f1:ce:52:bc:d6:
         ed:e0:ea:1b:f0:90:87:20:f1:ce:5e:0f:52:a1:98:29:9e:c2:
         41:6b:02:48:2d:14:e3:90:4f:c1:32:7a:b7:03:99:f1:93:b4:
         cd:13:fc:61:d0:7c:e9:d7:d5:43:e0:b5:55:5e:ed:bd:90:12:
         52:a8:ff:2b:ea:be:fb:5f:7e:e4:7f:08:18:e8:69:51:2c:1e:
         10:e8:bd:32:10:66:bd:41:28:1a:85:b5:47:05:f7:ba:a5:8b:
         91:37:5f:ce:c8:de:bb:95:90:fb:ca:73:c2:1a:0c:da:5d:41:
         b0:dd:c0:01:d0:e7:81:b2:8c:63:c9:ee:ff:eb:d7:79:88:39:
         4b:72:7e:43:b2:26:07:46:06:01:d1:e7:1e:12:4d:bd:72:82:
         95:aa:61:4d:d6:69:d3:3f:aa:a0:40:fe:fb:63:21:09:25:c0:
         b4:ad:02:f5:90:d7:af:e3:5d:43:93:c0:c1:b1:cb:d6:cf:30:
         fb:c9:c3:ef:0d:4b:07:52:4f:b0:9f:37:21:8f:cb:77:1a:10:
         6d:20:fe:da:80:83:16:94:65:bd:e4:e6:f7:df:39:5a:9b:75:
         40:35:0e:0e:07:d1:b7:c9:10:1a:2d:72:44:08:39:ad:1b:be:
         22:c8:a4:20:e3:26:c3:9b:f3:80:62:54:3d:61:3d:a4:52:68:
         29:02:36:70:9e:9d:9f:ab:c7:43:1e:68:5f:4f:85:ad:bc:5b:
         7c:2d:a5:af:69:36:c2:d3:88:07:e1:f6:e8:96:50:fa:46:9e:
         4b:67:4d:34:68:2c:67:af:0c:c5:05:a7:93:fc:fe:08:d1:27:
         fd:1e:29:92:ae:fe:a2:45:8f:18:14:73:fb:ae:c5:96:21:60:
         ef:11:bf:ef:4a:44:af:6c:56:81:98:2a:fd:06:c0:18:20:7f:
         1c:f3:92:c2:e2:d0:34:71:d3:f4:8c:c1:d8:ed:e2:73:8d:4b:
         8e:eb:09:85:a7:ce:de:94
-----BEGIN CERTIFICATE-----
MIIFujCCA6KgAwIBAgIFIBkBGQgwDQYJKoZIhvcNAQELBQAwgdQxCzAJBgNVBAYT
AkpQMQ4wDAYDVQQIDAVFaGltZTESMBAGA1UEBwwJTWF0c3V5YW1hMRUwEwYDVQQK
DAxQZXJzb25hbCBVc2UxFjAUBgNVBAoMDVRha2FzaGlTYXNha2kxGTAXBgNVBAsM
EFRha2FzaGlTYXNha2kgQ0ExLzAtBgNVBAMMJlRha2FzaGkgU0FTQUtJIENlcnRp
ZmljYXRpb24gQXV0aG9yaXR5MSYwJAYJKoZIhvcNAQkBFhd0YWthc2hpMzE2K2Nh
QGdtYWlsLmNvbTAgFw0xODAyMTcwMTAzMjFaGA8yMTE4MDEyNDAxMDMyMVowgbMx
CzAJBgNVBAYTAkpQMQ4wDAYDVQQIDAVFaGltZTESMBAGA1UEBwwJTWF0c3V5YW1h
MRUwEwYDVQQKDAxQZXJzb25hbCBVc2UxFjAUBgNVBAoMDVRha2FzaGlTYXNha2kx
EDAOBgNVBAsMB1NTSCBLZXkxFDASBgNVBAsMC1N1cmZhY2VQcm80MRAwDgYDVQQL
DAd0YWthc2hpMRcwFQYDVQQDDA5UYWthc2hpIFNBU0FLSTCCASIwDQYJKoZIhvcN
AQEBBQADggEPADCCAQoCggEBALvSlxslbUMepOyBmqflvy5R+WbTqRkCwyDkTBvg
VYLyHIo59r20Gp543ySlT0Iv+pw+53ZJOzDkEglfe9vjgazMKNC1+O/e8Mq0SRKx
4vV1seHr5P+MEiPtpFCFenYfdyvntQey60Sc9S4C5u4ix+cuOPMwaDyYUzwogXiV
uM+0+BkrRrlz7Tt7jWLI3I4GrJu5cykcT5HRizoa4cHbEctw2Ozn7HXyhXya7JI9
sl5Aun0OZ+BlWtWU2BOVotQmtVO4AdQ6v/intDXbr8iU6vG34KqaZz5Tz7KMiaUq
JgN+DCOLJIywP+bCU7wrLWSdH9LEnm2UGM6dqpkmoawhjGkCAwEAAaOBrzCBrDAJ
BgNVHRMEAjAAMAsGA1UdDwQEAwIE8DAxBgNVHSUEKjAoBggrBgEFBQcDAgYIKwYB
BQUHAwMGCCsGAQUFBwMEBggrBgEFBQcDCDAdBgNVHQ4EFgQU/+5D+e8sWcYV5SQG
4imLJdxC7cwwHwYDVR0jBBgwFoAUuQ5Rj+GbKO6xj3auCICYuFeT49AwHwYDVR0R
BBgwFoEUdGFrYXNoaTMxNkBnbWFpbC5jb20wDQYJKoZIhvcNAQELBQADggIBADyn
0cmAqsiNorFHJ14Tb+MALAISNdEhnPDSxql7fwS9zsJ/j974nSV5+rum6em33F8e
By22msyy3t1HibalNSzdwI4a7GvPbUf7kwCJTyb9M+F5jEvdigKr1E7b72c7BYTM
Iu02ZmJG3rhZdjUABpY8aR4yIzsDD2MqCPY/LBVQQdP/ZJQqtp5dNn/xzlK81u3g
6hvwkIcg8c5eD1KhmCmewkFrAkgtFOOQT8EyercDmfGTtM0T/GHQfOnX1UPgtVVe
7b2QElKo/yvqvvtffuR/CBjoaVEsHhDovTIQZr1BKBqFtUcF97qli5E3X87I3ruV
kPvKc8IaDNpdQbDdwAHQ54GyjGPJ7v/r13mIOUtyfkOyJgdGBgHR5x4STb1ygpWq
YU3WadM/qqBA/vtjIQklwLStAvWQ16/jXUOTwMGxy9bPMPvJw+8NSwdST7CfNyGP
y3caEG0g/tqAgxaUZb3k5vffOVqbdUA1Dg4H0bfJEBotckQIOa0bviLIpCDjJsOb
84BiVD1hPaRSaCkCNnCenZ+rx0MeaF9Pha28W3wtpa9pNsLTiAfh9uiWUPpGnktn
TTRoLGevDMUFp5P8/gjRJ/0eKZKu/qJFjxgUc/uuxZYhYO8Rv+9KRK9sVoGYKv0G
wBggfxzzksLi0DRx0/SMwdjt4nONS47rCYWnzt6U
-----END CERTIFICATE-----
